(lp0
(lp1
F24782.0
aF22.835
aF25904.0
aF22.715
aF28052.0
aF22.533
aa(lp2
F31954.0
aF22.327
aF38068.0
aF22.134
aF44666.0
aF21.975
aa(lp3
F48517.0
aF20.46
aF50087.0
aF19.104
aF50638.0
aF18.448
aa(lp4
F51075.0
aF17.548
aF51151.0
aF17.191
aF51168.0
aF17.078
aa(lp5
F51192.0
aF16.876
aF51200.0
aF16.289
aF51031.0
aF15.56
aa(lp6
F50870.0
aF15.029
aF50813.0
aF14.857
aF50781.0
aF14.762
aa(lp7
F50735.0
aF14.634
aF50608.0
aF14.381
aF50550.0
aF14.274
aa(lp8
F50524.0
aF14.229
aF50370.0
aF13.739
aF51914.0
aF12.541
aa(lp9
F52594.0
aF12.109
aF52718.0
aF12.036
aF52990.0
aF11.845
aa(lp10
F53959.0
aF11.229
aF55569.0
aF10.397
aF57548.0
aF9.6409
aa(lp11
F59010.0
aF9.1636
aF59520.0
aF9.0094
aF59863.0
aF8.9086
aa(lp12
F60021.0
aF8.8629
aF60108.0
aF8.8381
aF60203.0
aF8.8109
aa(lp13
F60377.0
aF8.7617
aF60827.0
aF8.6373
aF61907.0
aF8.3543
aa(lp14
F62827.0
aF8.13
aF64228.0
aF7.8037
aF65309.0
aF7.564
aa(lp15
F66849.0
aF7.2369
aF67415.0
aF7.1147
aF67504.0
aF7.0958
aa(lp16
F67905.0
aF7.0104
aF68907.0
aF6.8013
aF69336.0
aF6.7139
aa(lp17
F69512.0
aF6.6789
aF69737.0
aF6.6344
aF70171.0
aF6.5487
aa(lp18
F70392.0
aF6.5053
aF70564.0
aF6.4717
aF71771.0
aF6.2379
aa(lp19
F73549.0
aF5.6797
aF73953.0
aF5.4813
aF74010.0
aF5.4542
aa(lp20
F74062.0
aF5.4295
aF74148.0
aF5.3894
aF74507.0
aF5.227
aa(lp21
F75343.0
aF4.8485
aF75681.0
aF4.7104
aF75740.0
aF4.688
aa(lp22
F75920.0
aF4.6232
aF76657.0
aF4.4729
aF77057.0
aF4.4006
aa(lp23
F77350.0
aF4.3495
aF78582.0
aF4.2005
aF81778.0
aF3.8686
aa(lp24
F83048.0
aF3.7493
aF83233.0
aF3.7325
aF83537.0
aF3.7051
aa(lp25
F84187.0
aF3.6477
aF85011.0
aF58.769
aF85778.0
aF56.33
aa(lp26
F85201.0
aF54.726
aF84288.0
aF52.264
aF86003.0
aF49.938
aa(lp27
F86539.0
aF49.242
aF86631.0
aF49.124
aF86732.0
aF48.995
aa(lp28
F86917.0
aF48.76
aF87901.0
aF47.539
aF90719.0
aF44.598
aa(lp29
F91903.0
aF43.504
aF92127.0
aF43.302
aF92903.0
aF42.607
aa(lp30
F94745.0
aF40.966
aF95479.0
aF40.318
aF95689.0
aF40.133
aa(lp31
F96266.0
aF39.633
aF97628.0
aF38.479
aF98353.0
aF37.879
aa(lp32
F98979.0
aF37.371
aF99286.0
aF37.126
aF99495.0
aF36.959
aa(lp33
F99686.0
aF36.808
aF99998.0
aF36.562
aF100190.0
aF36.413
aa(lp34
F100400.0
aF36.25
aF100560.0
aF36.121
aF100690.0
aF36.022
aa(lp35
F100790.0
aF35.942
aF37806.0
aF35.247
aF38996.0
aF33.506
aa(lp36
F39446.0
aF32.843
aF39542.0
aF32.7
aF39735.0
aF32.415
aa(lp37
F40154.0
aF31.789
aF39306.0
aF31.514
aF38560.0
aF31.379
aa(lp38
F36369.0
aF30.986
aF31098.0
aF30.072
aF21213.0
aF28.467
aa(lp39
F23862.0
aF27.1
aF22016.0
aF26.523
aF22363.0
aF25.794
aa(lp40
F22615.0
aF25.252
aF19975.0
aF25.091
aF16189.0
aF25.04
aa(lp41
F12165.0
aF24.758
aF12037.0
aF23.823
aF11814.0
aF22.736
aa(lp42
F11564.0
aF21.599
aF11456.0
aF21.027
aF11374.0
aF20.562
aa(lp43
F11344.0
aF20.381
aF11155.0
aF20.342
aF10290.0
aF19.798
aa(lp44
F10104.0
aF18.436
aF10054.0
aF17.918
aF6870.2
aF17.784
aa(lp45
F6845.9
aF17.436
aF6818.9
aF16.65
aF6850.9
aF16.352
aa(lp46
F6858.7
aF16.292
aF6886.4
aF16.087
aF6963.8
aF15.6
aa(lp47
F7003.2
aF15.385
aF7024.7
aF15.275
aF7338.1
aF14.23
aa(lp48
F8318.3
aF11.88
aF8735.4
aF11.117
aF8722.6
aF11.044
aa(lp49
F8752.7
aF10.984
aF8798.6
aF10.894
aF8937.8
aF10.63
aa(lp50
F20334.0
aF10.029
aF19150.0
aF9.8082
aF18430.0
aF9.777
aa(lp51
F17903.0
aF9.7542
aF17183.0
aF9.7232
aF16656.0
aF9.7006
aa(lp52
F15936.0
aF9.6698
aF11590.0
aF9.4864
aF8966.3
aF9.0356
aa(lp53
F9044.6
aF8.8673
aF9057.6
aF8.8398
aF9079.2
aF8.7948
aa(lp54
F9125.2
aF8.7001
aF9147.0
aF8.6559
aF9160.2
aF8.6293
aa(lp55
F9189.4
aF8.5711
aF9256.1
aF8.4405
aF9285.7
aF8.384
aa(lp56
F9299.1
aF8.3584
aF9312.7
aF8.3327
aF9336.4
aF8.2883
aa(lp57
F9347.5
aF8.2676
aF9353.5
aF8.255
aF9381.1
aF8.2023
aa(lp58
F9452.7
aF8.0727
aF9557.2
aF7.8897
aF9773.6
aF7.5324
aa(lp59
F9825.0
aF7.3988
aF9749.4
aF7.3769
aF9882.2
aF7.2002
aa(lp60
F10233.0
aF6.7634
aF8201.4
aF6.6085
aF2301.7
aF6.5991
aa(lp61
F134.78
aF6.449
aF120.13
aF6.0689
aF109.21
aF5.7327
aa(lp62
F95.405
aF5.2186
aF91.297
aF5.0403
aF91.003
aF5.0269
aa(lp63
F49.652
aF4.9703
aF48.963
aF4.8965
aF48.318
aF4.8191
aa(lp64
F47.76
aF4.7434
aF47.384
aF4.6923
aF46.861
aF4.6135
aa(lp65
F46.67
aF4.5808
aF46.605
aF4.5689
aF46.185
aF4.4823
aa(lp66
F45.479
aF4.1899
aF44.315
aF3.844
aF43.956
aF3.6032
aa(lp67
F43.931
aF3.5361
aF33.329
aF3.519
aF32.819
aF3.4556
aa(lp68
F31.387
aF3.2676
aF30.211
aF3.0925
aF29.905
aF3.0413
aa(lp69
F29.863
aF3.0342
aF29.513
aF2.9745
aF30.744
aF2.8254
aa(lp70
F31.358
aF2.7709
aF31.43
aF2.7646
aF32.001
aF2.7161
aa(lp71
F33.519
aF2.5946
aF32.069
aF2.5495
aF28.041
aF2.5446
aa(lp72
F9.1922
aF2.5066
aF10.383
aF2.4125
aF10.849
aF2.3774
aa(lp73
F10.918
aF2.3722
aF10.972
aF2.3049
aF9.8943
aF2.1375
aa(lp74
F9.4885
aF2.077
aF6.5489
aF2.0683
aF6.5663
aF2.0522
aa(lp75
F6.5822
aF2.0378
aF6.5869
aF2.0335
aF6.6366
aF1.9909
aa(lp76
F6.7763
aF1.8839
aF6.832
aF1.8453
aF6.8375
aF1.8415
aa(lp77
F6.8857
aF1.8099
aF6.8586
aF1.7305
aF6.8474
aF1.7001
aa(lp78
F6.1028
aF1.6934
aF6.0669
aF1.6674
aF5.98
aF1.6051
aa(lp79
F5.9471
aF1.5819
aF5.9428
aF1.5789
aF5.931
aF1.5706
aa(lp80
F5.8962
aF1.5464
aF5.8617
aF1.5228
aF5.8323
aF1.5028
aa(lp81
F5.7607
aF1.4546
aF5.6687
aF1.3947
aF5.6003
aF1.3509
aa(lp82
F5.5543
aF1.318
aF5.4753
aF1.2615
aF5.4454
aF1.2407
aa(lp83
F5.4421
aF1.2385
aF5.4314
aF1.2311
aF1.7695
aF1.2135
aa(lp84
F1.7723
aF1.2063
aF1.7731
aF1.2042
aF1.791
aF1.1605
aa(lp85
F1.8008
aF1.053
aF1.8027
aF1.0155
aF1.8029
aF1.012
aa(lp86
F1.8037
aF0.9984
aF1.8066
aF0.95365
aF1.8108
aF0.89903
aa(lp87
F1.8233
aF0.85983
aF1.8269
aF0.84951
aF1.8271
aF0.84882
aa(lp88
F1.8292
aF0.8431
aF1.8364
aF0.82297
aF1.846
aF0.79763
aa(lp89
F1.8533
aF0.77888
aF1.857
aF0.76991
aF1.8626
aF0.75613
aa(lp90
F1.8681
aF0.74266
aF1.8699
aF0.73838
aF1.8704
aF0.73722
aa(lp91
F1.8719
aF0.73384
aF1.8753
aF0.72585
aF1.8767
aF0.72254
aa(lp92
F1.8772
aF0.72142
aF1.8801
aF0.71482
aF1.8903
aF0.6922
aa(lp93
F1.9036
aF0.66404
aF1.9139
aF0.64344
aF1.9169
aF0.63756
aa(lp94
F1.9176
aF0.63612
aF1.9224
aF0.62708
aF1.9346
aF0.60455
aa(lp95
F1.9393
aF0.59624
aF1.9398
aF0.59535
aF1.9415
aF0.5923
aa(lp96
F1.0231
aF0.58492
aF1.023
aF0.58209
aF1.023
aF0.58166
aa(lp97
F1.0227
aF0.57267
aF1.0218
aF0.54939
aF1.0215
aF0.54088
aa(lp98
F1.0215
aF0.5401
aF1.0213
aF0.53595
aF1.0207
aF0.52176
aa(lp99
F1.0199
aF0.50395
aF1.0193
aF0.49082
aF1.0193
aF0.48714
aa(lp100
F1.0194
aF0.48646
aF1.0205
aF0.48151
aF1.0233
aF0.46896
aa(lp101
F0.88823
aF0.46445
aF0.88823
aF0.46441
aF0.88825
aF0.46413
aa(lp102
F0.88853
aF0.45991
aF0.89372
aF0.44928
aF0.89746
aF0.44524
aa(lp103
F0.89803
aF0.44463
aF0.90249
aF0.43988
aF0.91412
aF0.4278
aa(lp104
F0.91859
aF0.42327
aF0.91916
aF0.4227
aF0.92217
aF0.41969
aa(lp105
F0.92879
aF0.41215
aF0.92608
aF0.40933
aF0.92575
aF0.40906
aa(lp106
F0.88519
aF0.40836
aF0.86807
aF0.40672
aF0.86689
aF0.40573
aa(lp107
F0.86561
aF0.40465
aF0.86491
aF0.40406
aF0.86427
aF0.40352
aa(lp108
F0.85967
aF0.3997
aF0.84333
aF0.38644
aF0.82201
aF0.36997
aa(lp109
F0.80565
aF0.35794
aF0.79892
aF0.35316
aF0.79249
aF0.34866
aa(lp110
F0.71683
aF0.34613
aF0.71795
aF0.34263
aF0.71959
aF0.33758
aa(lp111
F0.72123
aF0.33263
aF0.72235
aF0.3293
aF0.72348
aF0.32598
aa(lp112
F0.72663
aF0.31689
aF0.72981
aF0.30551
aF0.73221
aF0.29714
aa(lp113
F0.73353
aF0.29318
aF0.73531
aF0.28839
aF0.7369
aF0.28419
aa(lp114
F0.73946
aF0.27757
aF0.74141
aF0.27267
aF0.74415
aF0.26591
aa(lp115
F0.74524
aF0.26326
aF0.74231
aF0.26264
aF0.74366
aF0.26003
aa(lp116
F0.74702
aF0.25366
aF0.7489
aF0.25018
aF0.75115
aF0.24609
aa(lp117
F0.75339
aF0.24209
aF0.75477
aF0.23966
aF0.75678
aF0.23623
aa(lp118
F0.75758
aF0.23488
aF0.75774
aF0.23461
aF0.75827
aF0.23372
aa(lp119
F0.75955
aF0.23159
aF0.76011
aF0.23066
aF0.76035
aF0.23027
aa(lp120
F0.76115
aF0.22895
aF0.76382
aF0.22463
aF0.76728
aF0.21914
aa(lp121
F0.76992
aF0.21505
aF0.77068
aF0.21389
aF0.77083
aF0.21365
aa(lp122
F0.77216
aF0.21164
aF0.77576
aF0.20651
aF0.77869
aF0.20326
aa(lp123
F0.78217
aF0.19947
aF0.78351
aF0.19803
aF0.78371
aF0.19781
aa(lp124
F0.78539
aF0.19603
aF0.78976
aF0.19147
aF0.79228
aF0.18889
aa(lp125
F0.79481
aF0.18635
aF0.79765
aF0.18353
aF0.80286
aF0.17847
aa(lp126
F0.80524
aF0.17622
aF0.80654
aF0.175
aF0.80708
aF0.17449
aa(lp127
F0.80728
aF0.1743
aF0.8083
aF0.17336
aF0.81216
aF0.1699
aa(lp128
F0.81828
aF0.16468
aF0.82515
aF0.15903
aF0.83119
aF0.15422
aa(lp129
F0.83505
aF0.15124
aF0.83692
aF0.14981
aF0.84035
aF0.14725
aa(lp130
F0.8448
aF0.14399
aF0.8482
aF0.14155
aF0.84918
aF0.14086
aa(lp131
F0.84938
aF0.14072
aF0.84963
aF0.14053
aF0.85013
aF0.14018
aa(lp132
F0.85039
aF0.14
aF0.85059
aF0.13986
aF0.8515
aF0.13922
aa(lp133
F0.85484
aF0.1369
aF0.86003
aF0.13339
aF0.86574
aF0.12955
aa(lp134
F0.8707
aF0.12627
aF0.87388
aF0.12422
aF0.87561
aF0.12311
aa(lp135
F0.87917
aF0.12087
aF0.88386
aF0.11803
aF0.88738
aF0.11591
aa(lp136
F0.88916
aF0.11487
aF0.89149
aF0.11357
aF0.89241
aF0.11305
aa(lp137
F0.8926
aF0.11295
aF0.89354
aF0.11242
aF0.89705
aF0.11051
aa(lp138
F0.90247
aF0.1076
aF0.90855
aF0.10443
aF0.91389
aF0.10173
aa(lp139
F0.9173
aF0.10004
aF0.91913
aF0.09914
aF0.92285
aF0.097357
aa(lp140
F0.92767
aF0.095091
aF0.93135
aF0.0934
aF0.93329
aF0.092514
aa(lp141
F0.93693
aF0.09088
aF0.94164
aF0.088802
aF0.94523
aF0.087251
aa(lp142
F0.94681
aF0.086576
aF0.94851
aF0.085853
aF0.9506
aF0.084973
aa(lp143
F0.9546
aF0.083312
aF0.95774
aF0.082031
aF0.9623
aF0.080199
aa(lp144
F0.96402
aF0.079517
aF0.9642
aF0.079448
aF0.96503
aF0.079122
aa(lp145
F0.96711
aF0.078308
aF0.96874
aF0.077675
aF0.972
aF0.076424
aa(lp146
F0.97623
aF0.074829
aF0.97945
aF0.073635
aF0.98083
aF0.073129
aa(lp147
F0.98226
aF0.072606
aF0.98288
aF0.072382
aF0.98313
aF0.072291
aa(lp148
F0.98344
aF0.072179
aF0.98402
aF0.071967
aF0.9843
aF0.071868
aa(lp149
F0.98447
aF0.071807
aF0.98542
aF0.071466
aF0.98783
aF0.070602
aa(lp150
F0.98899
aF0.070192
aF0.98974
aF0.069929
aF0.99007
aF0.069812
aa(lp151
F0.99024
aF0.069753
aF0.99163
aF0.069265
aF0.99525
aF0.068011
aa(lp152
F0.99663
aF0.067538
aF0.9968
aF0.067482
aF0.99729
aF0.067319
aa(lp153
F0.99845
aF0.066931
aF0.99894
aF0.06677
aF0.9991
aF0.066715
aa(lp154
F1.0008
aF0.066154
aF1.0052
aF0.064705
aF1.0069
aF0.064165
aa(lp155
F1.0071
aF0.064113
aF1.0103
aF0.063089
aF1.0187
aF0.060445
aa(lp156
F1.0248
aF0.058598
aF1.033
aF0.056188
aF1.036
aF0.055322
aa(lp157
F1.0361
aF0.055279
aF1.0369
aF0.055039
aF1.0398
aF0.05421
aa(lp158
F1.0436
aF0.053153
aF1.0464
aF0.052359
aF1.0483
aF0.051859
aa(lp159
F1.0522
aF0.050781
aF1.0573
aF0.049418
aF1.0611
aF0.048404
aa(lp160
F1.0631
aF0.047879
aF1.0659
aF0.047181
aF1.0674
aF0.046797
aa(lp161
F1.0694
aF0.046273
aF1.0726
aF0.045471
aF1.0761
aF0.044587
aa(lp162
F1.0792
aF0.043822
aF1.0812
aF0.04334
aF1.0818
aF0.043209
aa(lp163
F1.0819
aF0.043177
aF1.083
aF0.042894
aF1.0861
aF0.042163
aa(lp164
F1.0866
aF0.041889
aF1.0856
aF0.041858
aF1.0861
aF0.04168
aa(lp165
F1.088
aF0.041229
aF1.0887
aF0.041054
aF1.0889
aF0.041024
aa(lp166
F1.0898
aF0.040795
aF1.0932
aF0.039986
aF1.0974
aF0.038962
aa(lp167
F1.1007
aF0.038199
aF1.1015
aF0.037989
aF1.1012
aF0.037962
aa(lp168
F1.1018
aF0.037807
aF1.1042
aF0.037268
aF1.1073
aF0.036579
aa(lp169
F1.1096
aF0.036062
aF1.1103
aF0.035917
aF1.1104
aF0.035892
aa(lp170
F1.1111
aF0.035732
aF1.1136
aF0.035175
aF1.1169
aF0.034465
aa(lp171
F1.1193
aF0.033933
aF1.1206
aF0.033653
aF1.123
aF0.033137
aa(lp172
F1.1261
aF0.032478
aF1.1284
aF0.031985
aF1.1296
aF0.031726
aa(lp173
F1.1319
aF0.031247
aF1.1349
aF0.030635
aF1.1371
aF0.030177
aa(lp174
F1.1383
aF0.029937
aF1.1405
aF0.029492
aF1.1433
aF0.028923
aa(lp175
F1.1454
aF0.028497
aF1.1464
aF0.028306
aF1.1479
aF0.028011
aa(lp176
F1.1498
aF0.027632
aF1.1512
aF0.027346
aF1.1516
aF0.027264
aa(lp177
F1.1517
aF0.027246
aF1.1524
aF0.027095
aF1.1544
aF0.026704
aa(lp178
F1.1553
aF0.026522
aF1.1558
aF0.026411
aF1.1563
aF0.0263
aa(lp179
F1.1573
aF0.026106
aF1.1586
aF0.025836
aF1.1612
aF0.025298
aa(lp180
F1.1626
aF0.025027
aF1.1636
aF0.024814
aF1.164
aF0.024731
aa(lp181
F1.1641
aF0.024715
aF1.1646
aF0.024616
aF1.1664
aF0.024269
aa(lp182
F1.1664
aF0.023826
aF1.1679
aF0.023493
aF1.1684
aF0.0234
aa(lp183
F1.1684
aF0.023385
aF1.1688
aF0.023293
aF1.1703
aF0.022969
aa(lp184
F1.1721
aF0.022556
aF1.1735
aF0.022245
aF1.1742
aF0.022082
aa(lp185
F1.1755
aF0.02178
aF1.1771
aF0.021394
aF1.1784
aF0.021103
aa(lp186
F1.179
aF0.020951
aF1.1801
aF0.020668
aF1.1816
aF0.020307
aa(lp187
F1.1827
aF0.020035
aF1.1835
aF0.019821
aF1.1849
aF0.019437
aa(lp188
F1.1857
aF0.019223
aF1.1865
aF0.019015
aF1.1868
aF0.018925
aa(lp189
F1.1869
aF0.018887
aF1.187
aF0.018868
aF1.187
aF0.018857
aa(lp190
F1.1875
aF0.018725
aF1.1887
aF0.018379
aF1.1891
aF0.018252
aa(lp191
F1.1891
aF0.018247
aF1.1893
aF0.018171
aF1.19
aF0.017973
aa(lp192
F1.1902
aF0.017897
aF1.1902
aF0.017887
aF1.1905
aF0.017813
aa(lp193
F1.191
aF0.017625
aF1.1916
aF0.01741
aF1.1927
aF0.017017
aa(lp194
F1.1933
aF0.01678
aF1.194
aF0.016521
aF1.1942
aF0.016409
aa(lp195
F1.1943
aF0.016358
aF1.1944
aF0.016337
aF1.1944
aF0.016327
aa(lp196
F1.1946
aF0.016255
aF1.195
aF0.016069
aF1.1951
aF0.016001
aa(lp197
F1.1951
aF0.016001
aF1.1951
aF0.016
aF1.1954
aF0.01588
aa(lp198
F1.196
aF0.015558
aF1.1961
aF0.015439
aF1.1962
aF0.015431
aa(lp199
F1.1962
aF0.015424
aF1.1962
aF0.015416
aF1.1962
aF0.01541
aa(lp200
F1.1962
aF0.015401
aF1.1962
aF0.015395
aF1.1962
aF0.015386
aa(lp201
F1.1963
aF0.01536
aF1.1964
aF0.015297
aF1.1964
aF0.01527
aa(lp202
F1.1964
aF0.015262
aF1.1965
aF0.015207
aF1.1967
aF0.015065
aa(lp203
F1.1968
aF0.014978
aF1.1969
aF0.014879
aF1.1969
aF0.014842
aa(lp204
F1.1969
aF0.014838
aF1.197
aF0.014738
aF1.1972
aF0.014471
aa(lp205
F1.1973
aF0.014264
aF1.1973
aF0.013858
aF1.1969
aF0.01335
aa(lp206
F1.1964
aF0.012976
aF1.196
aF0.012753
aF1.1948
aF0.012296
aa(lp207
F1.1927
aF0.01173
aF1.1907
aF0.01132
aF1.1897
aF0.011147
aa(lp208
F1.1881
aF0.010904
aF1.1859
aF0.010597
aF1.184
aF0.010369
aa(lp209
F1.1834
aF0.010308
aF1.1834
aF0.010303
aF1.1829
aF0.010257
aa(lp210
F1.1812
aF0.010081
aF1.1784
aF0.0098158
aF1.1749
aF0.009527
aa(lp211
F1.1716
aF0.0092804
aF1.1693
aF0.0091265
aF1.1677
aF0.0090233
aa(lp212
F1.1635
aF0.0087667
aF1.1563
aF0.0083857
aF1.1475
aF0.0079811
aa(lp213
F1.1389
aF0.0076441
aF1.1331
aF0.0074376
aF1.1316
aF0.0073861
aa(lp214
F1.1315
aF0.0073828
aF1.1294
aF0.0073139
aF1.1236
aF0.0071328
aa(lp215
F1.1197
aF0.0070191
aF1.1132
aF0.0068394
aF1.1042
aF0.0066139
aa(lp216
F1.0971
aF0.0064478
aF1.0935
aF0.0063681
aF1.0872
aF0.0062342
aa(lp217
F1.0787
aF0.0060651
aF1.072
aF0.0059396
aF1.0671
aF0.0058533
aa(lp218
F1.0587
aF0.0057105
aF1.0487
aF0.0055504
aF1.029
aF0.0052666
aa(lp219
F1.0172
aF0.0051127
aF1.0052
aF0.0049666
aF1.0007
aF0.0049138
aa(lp220
F1.0005
aF0.0049119
aF0.99562
aF0.0048565
aF0.98215
aF0.0047112
aa(lp221
F0.97371
aF0.0046259
aF0.96
aF0.004494
aF0.93807
aF0.0042986
aa(lp222
F0.9124
aF0.0040916
aF0.8888
aF0.0039197
aF0.87327
aF0.0038146
aa(lp223
F0.86489
aF0.0037603
aF0.84794
aF0.0036549
aF0.82537
aF0.0035236
aa(lp224
F0.80767
aF0.0034273
aF0.80281
aF0.0034019
aF0.80259
aF0.0034008
aa(lp225
F0.79636
aF0.0033687
aF0.77135
aF0.0032456
aF0.73149
aF0.0030662
aa(lp226
F0.68487
aF0.0028802
aF0.6427
aF0.0027288
aF0.61528
aF0.0026376
aa(lp227
F0.60826
aF0.0026154
aF0.60801
aF0.0026146
aF0.60594
aF0.0026081
aa(lp228
F0.59797
aF0.0025833
aF0.58554
aF0.0025454
aF0.57149
aF0.0025036
aa(lp229
F0.55902
aF0.0024674
aF0.55102
aF0.0024445
aF0.54275
aF0.0024213
aa(lp230
F0.52561
aF0.0023743
aF0.51574
aF0.0023478
aF0.50221
aF0.0023125
aa(lp231
F0.48438
aF0.0022675
aF0.47076
aF0.002234
aF0.4609
aF0.0022101
aa(lp232
F0.43756
aF0.0021549
aF0.40728
aF0.002086
aF0.38397
aF0.0020355
aa(lp233
F0.3685
aF0.002003
aF0.3435
aF0.0019515
aF0.33434
aF0.0019329
aa(lp234
F0.33408
aF0.0019325
aF0.3325
aF0.0019293
aF0.32846
aF0.0019212
aa(lp235
F0.32689
aF0.001918
aF0.32665
aF0.0019176
aF0.32597
aF0.0019162
aa(lp236
F0.32439
aF0.001913
aF0.32371
aF0.0019117
aF0.3236
aF0.0019115
aa(lp237
F0.32357
aF0.0019114
aF0.32127
aF0.0019068
aF0.31272
aF0.0018899
aa(lp238
F0.30165
aF0.0018682
aF0.29321
aF0.0018518
aF0.28648
aF0.001839
aa(lp239
F0.27425
aF0.0018162
aF0.2644
aF0.0017978
aF0.24976
aF0.0017708
aa(lp240
F0.24187
aF0.0017563
aF0.23219
aF0.0017386
aF0.21972
aF0.0017159
aa(lp241
F0.21029
aF0.0016989
aF0.20284
aF0.0016855
aF0.18312
aF0.0016503
aa(lp242
F0.1535
aF0.0015979
aF0.12208
aF0.0015419
aF0.096609
aF0.001495
aa(lp243
F0.081554
aF0.0014662
aF0.077963
aF0.001459
aF0.077807
aF0.0014587
aa(lp244
F0.074416
aF0.0014518
aF0.06256
aF0.001427
aF0.049078
aF0.0013956
aa(lp245
F0.040737
aF0.0013724
aF0.031923
aF0.0013602
aF0.032275
aF0.0013379
aa(lp246
F0.032738
aF0.0013098
aF0.033095
aF0.0012889
aF0.033289
aF0.0012779
aa(lp247
F0.03366
aF0.0012574
aF0.034148
aF0.0012315
aF0.034525
aF0.0012123
aa(lp248
F0.034627
aF0.0012072
aF0.034632
aF0.001207
aF0.034756
aF0.0012009
aa(lp249
F0.035217
aF0.0011788
aF0.035824
aF0.0011511
aF0.036293
aF0.0011307
aa(lp250
F0.036477
aF0.001123
aF0.036708
aF0.0011134
aF0.037071
aF0.0010987
aa(lp251
F0.037483
aF0.0010826
aF0.03785
aF0.0010688
aF0.038087
aF0.0010601
aa(lp252
F0.038251
aF0.0010541
aF0.038645
aF0.0010402
aF0.039163
aF0.0010225
aa(lp253
F0.039563
aF0.0010094
aF0.039887
aF0.0009996
aF0.040469
aF0.00098259
aa(lp254
F0.040685
aF0.00097646
aF0.04069
aF0.00097631
aF0.040871
aF0.00097123
aa(lp255
F0.041362
aF0.00095775
aF0.041631
aF0.00095058
aF0.041984
aF0.00094131
aa(lp256
F0.042537
aF0.00092725
aF0.043165
aF0.00091191
aF0.043723
aF0.00089876
aa(lp257
F0.044083
aF0.00089054
aF0.044294
aF0.00088582
aF0.04478
aF0.00087516
aa(lp258
F0.04554
aF0.0008591
aF0.046405
aF0.00084175
aF0.047175
aF0.00082705
aa(lp259
F0.047672
aF0.00081792
aF0.047798
aF0.00081564
aF0.047803
aF0.00081554
aa(lp260
F0.047906
aF0.00081371
aF0.048309
aF0.00080659
aF0.048941
aF0.00079579
aa(lp261
F0.049657
aF0.000784
aF0.050295
aF0.00077391
aF0.050707
aF0.0007676
aa(lp262
F0.050911
aF0.00076452
aF0.05132
aF0.00075846
aF0.05196
aF0.00074926
aa(lp263
F0.052686
aF0.00073921
aF0.053331
aF0.00073059
aF0.053747
aF0.0007252
aa(lp264
F0.053853
aF0.00072384
aF0.053859
aF0.00072377
aF0.053992
aF0.00072208
aa(lp265
F0.054364
aF0.00071742
aF0.055193
aF0.00070737
aF0.056024
aF0.00069769
aa(lp266
F0.056517
aF0.00069215
aF0.057201
aF0.00068469
aF0.057663
aF0.00067979
aa(lp267
F0.058117
aF0.00067508
aF0.058423
aF0.00067198
aF0.058721
aF0.000669
aa(lp268
F0.059124
aF0.00066504
aF0.059481
aF0.00066159
aF0.060003
aF0.00065667
aa(lp269
F0.06058
aF0.00065137
aF0.061637
aF0.00064202
aF0.062022
aF0.00063867
aa(lp270
F0.062025
aF0.00063865
aF0.062025
aF0.00063864
aF0.062053
aF0.00063839
aa(lp271
F0.062129
aF0.0006377
aF0.062158
aF0.00063743
aF0.062164
aF0.00063738
aa(lp272
F0.062379
aF0.00063544
aF0.062962
aF0.00063029
aF0.063184
aF0.00062842
aa(lp273
F0.06319
aF0.00062837
aF0.063412
aF0.00062653
aF0.064238
aF0.00061985
aa(lp274
F0.065325
aF0.00061146
aF0.066165
aF0.00060529
aF0.066623
aF0.00060203
aa(lp275
F0.067504
aF0.00059597
aF0.068663
aF0.00058838
aF0.069559
aF0.00058279
aa(lp276
F0.070383
aF0.00057784
aF0.07276
aF0.00056458
aF0.076533
aF0.00054611
aa(lp277
F0.080921
aF0.000528
aF0.084927
aF0.00051403
aF0.087557
aF0.00050595
aa(lp278
F0.088907
aF0.0005021
aF0.091706
aF0.00049468
aF0.096167
aF0.00048425
aa(lp279
F0.10135
aF0.00047391
aF0.10606
aF0.00046584
aF0.10919
aF0.00046114
aa(lp280
F0.1114
aF0.00045806
aF0.11533
aF0.00045303
aF0.11762
aF0.00045034
aa(lp281
F0.1199
aF0.00044782
aF0.12114
aF0.0004465
aF0.12223
aF0.00044538
aa(lp282
F0.12318
aF0.00044443
aF0.12466
aF0.00044298
aF0.12521
aF0.00044246
aa(lp283
F0.12569
aF0.00044201
aF0.12702
aF0.00044078
aF0.12828
aF0.00043966
aa(lp284
F0.13117
aF0.0004372
aF0.135
aF0.00043419
aF0.13796
aF0.00043203
aa(lp285
F0.13913
aF0.00043121
aF0.14052
aF0.00043027
aF0.14235
aF0.00042908
aa(lp286
F0.14376
aF0.00042819
aF0.14604
aF0.00042681
aF0.15382
aF0.00042255
aa(lp287
F0.16633
aF0.00041691
aF0.18104
aF0.00041174
aF0.19457
aF0.00040798
aa(lp288
F0.20352
aF0.0004059
aF0.20657
aF0.00040525
aF0.20954
aF0.00040465
aa(lp289
F0.21345
aF0.00040389
aF0.21647
aF0.00040333
aF0.21737
aF0.00040317
aa(lp290
F0.21773
aF0.00040311
aF0.2182
aF0.00040302
aF0.21857
aF0.00040296
aa(lp291
F0.21922
aF0.00040285
aF0.22076
aF0.00040258
aF0.22299
aF0.00040221
aa(lp292
F0.2276
aF0.00040147
aF0.2293
aF0.00040121
aF0.2293
aF0.00040121
aa(lp293
F0.22931
aF0.00040121
aF0.22932
aF0.00040121
aF0.23041
aF0.00040105
aa(lp294
F0.2334
aF0.00040061
aF0.23497
aF0.00040039
aF0.23626
aF0.0004002
aa(lp295
F0.23752
aF0.00040003
aF0.24049
aF0.00039963
aF0.24439
aF0.00039913
aa(lp296
F0.2474
aF0.00039876
aF0.24978
aF0.00039848
aF0.25411
aF0.00039798
aa(lp297
F0.25725
aF0.00039764
aF0.26349
aF0.000397
aF0.27336
aF0.00039607
aa(lp298
F0.28472
aF0.00039511
aF0.29492
aF0.00039435
aF0.30155
aF0.00039389
aa(lp299
F0.30482
aF0.00039368
aF0.31133
aF0.00039327
aF0.32159
aF0.00039268
aa(lp300
F0.33339
aF0.00039207
aF0.34401
aF0.00039157
aF0.35092
aF0.00039128
aa(lp301
F0.35555
aF0.00039109
aF0.36351
aF0.00039078
aF0.36665
aF0.00039066
aa(lp302
F0.3672
aF0.00039064
aF0.36755
aF0.00039063
aF0.36795
aF0.00039061
aa(lp303
F0.3688
aF0.00039058
aF0.37074
aF0.00039051
aF0.37324
aF0.00039042
aa(lp304
F0.37813
aF0.00039026
aF0.38011
aF0.00039019
aF0.38061
aF0.00039018
aa(lp305
F0.38098
aF0.00039016
aF0.38146
aF0.00039015
aF0.38251
aF0.00039011
aa(lp306
F0.38489
aF0.00039004
aF0.38642
aF0.00038999
aF0.3882
aF0.00038993
aa(lp307
F0.38885
aF0.00038991
aF0.38886
aF0.00038991
aF0.38887
aF0.00038991
aa(lp308
F0.38887
aF0.00038991
aF0.39018
aF0.00038987
aF0.3955
aF0.00038972
aa(lp309
F0.4042
aF0.00038947
aF0.41483
aF0.00038919
aF0.42561
aF0.00038893
aa(lp310
F0.43462
aF0.00038873
aF0.44024
aF0.00038861
aF0.44611
aF0.00038848
aa(lp311
F0.46437
aF0.00038814
aF0.49356
aF0.00038766
aF0.52761
aF0.0003872
aa(lp312
F0.55871
aF0.00038686
aF0.57915
aF0.00038666
aF0.58518
aF0.00038661
aa(lp313
F0.5882
aF0.00038658
aF0.59124
aF0.00038655
aF0.59722
aF0.0003865
aa(lp314
F0.60629
aF0.00038643
aF0.61715
aF0.00038634
aF0.62115
aF0.00038631
aa(lp315
F0.62118
aF0.00038631
aF0.62295
aF0.0003863
aF0.62776
aF0.00038627
aa(lp316
F0.63047
aF0.00038625
aF0.63307
aF0.00038623
aF0.63624
aF0.00038621
aa(lp317
F0.64543
aF0.00038614
aF0.66079
aF0.00038605
aF0.68044
aF0.00038593
aa(lp318
F0.70183
aF0.00038582
aF0.72208
aF0.00038572
aF0.73833
aF0.00038564
aa(lp319
F0.74823
aF0.0003856
aF0.75218
aF0.00038559
aF0.75639
aF0.00038557
aa(lp320
F0.77588
aF0.00038549
aF0.82594
aF0.00038532
aF0.85158
aF0.00038524
aa(lp321
F0.87558
aF0.00038518
aF0.89992
aF0.00038512
aF0.90708
aF0.0003851
aa(lp322
F0.9071
aF0.0003851
aF0.91308
aF0.00038509
aF0.9295
aF0.00038505
aa(lp323
F0.93555
aF0.00038504
aF0.93558
aF0.00038504
aF1.0233
aF0.00038487
aa(lp324
F1.2829
aF0.00038457
aF1.4966
aF0.00038443
aF1.8226
aF0.0003843
aa(lp325
F2.0915
aF0.00038424
aF2.5035
aF0.00038418
aF2.843
aF0.00038415
aa(lp326
F3.3637
aF0.00038412
aF3.768
aF0.00038411
aF4.3503
aF0.00038409
aa(lp327
F4.6218
aF0.00038409
aF4.7523
aF0.00038408
aF5.0064
aF0.00038408
aa(lp328
F5.8584
aF0.00038407
aF7.2383
aF0.00038406
aF8.7824
aF0.00038406
aa(lp329
F9.9364
aF0.00038406
aF10.583
aF0.00038405
aF11.974
aF0.00038405
aa(lp330
F14.212
aF0.00038405
aF16.714
aF0.00038405
aF18.592
aF0.00038405
aa(lp331
F19.61
aF0.00038405
aF21.731
aF0.00038405
aF25.179
aF0.00038405
aa(lp332
F29.106
aF0.00038405
aF32.117
aF0.00038405
aF33.771
aF0.00038405
aa(lp333
F37.274
aF0.00038405
aF43.128
aF0.00038405
aF50.025
aF0.00038405
aa(lp334
F55.463
aF0.00038405
aF58.501
aF0.00038405
aF65.033
aF0.00038405
aa(lp335
F76.195
aF0.00038405
aF89.62
aF0.00038405
aF100.32
aF0.00038405
aa(lp336
F106.33
aF0.00038405
aF119.26
aF0.00038405
aF141.29
aF0.00038405
aa(lp337
F167.49
aF0.00038405
aF188.05
aF0.00038405
aF199.44
aF0.00038405
aa(lp338
F223.59
aF0.00038405
aF263.57
aF0.00038405
aF309.22
aF0.00038405
aa(lp339
F343.68
aF0.00038405
aF362.29
aF0.00038405
aF400.66
aF0.00038405
aa(lp340
F461.13
aF0.00038405
aF526.0
aF0.00038405
aF572.26
aF0.00038405
aa(lp341
F596.32
aF0.00038405
aF644.06
aF0.00038405
aF714.39
aF0.00038405
aa(lp342
F783.52
aF0.00038405
aF829.02
aF0.00038405
aF851.46
aF0.00038405
aa(lp343
F893.49
aF0.00038405
aF949.28
aF0.00038405
aF996.66
aF0.00038405
aa(lp344
F1023.4
aF0.00038405
aF1035.1
aF0.00038405
aF1054.2
aF0.00038405
aa(lp345
F1072.5
aF0.00038405
aF1079.0
aF0.00038405
aF1076.9
aF0.00038405
aa(lp346
F1073.8
aF0.00038405
aF1064.0
aF0.00038405
aF1041.5
aF0.00038405
aa(lp347
F1010.6
aF0.00038405
aF985.4
aF0.00038405
aF971.51
aF0.00038405
aa(lp348
F942.59
aF0.00038405
aF897.21
aF0.00038405
aF849.77
aF0.00038405
aa(lp349
F817.0
aF0.00038405
aF800.35
aF0.00038405
aF768.08
aF0.00038405
aa(lp350
F722.37
aF0.00038405
aF679.32
aF0.00038405
aF651.81
aF0.00038405
aa(lp351
F638.42
aF0.00038405
aF613.54
aF0.00038405
aF580.49
aF0.00038405
aa(lp352
F551.53
aF0.00038405
aF534.1
aF0.00038405
aF525.93
aF0.00038405
aa(lp353
F511.3
aF0.00038405
aF493.06
aF0.00038405
aF478.38
aF0.00038405
aa(lp354
F470.28
aF0.00038405
aF466.71
aF0.00038405
aF460.76
aF0.00038405
aa(lp355
F454.41
aF0.00038405
aF450.62
aF0.00038405
aF449.37
aF0.00038405
aa(lp356
F449.12
aF0.00038405
aF449.35
aF0.00038405
aF451.27
aF0.00038405
aa(lp357
F454.88
aF0.00038405
aF458.22
aF0.00038405
aF459.18
aF0.00038405
aa.