(lp0
(lp1
F12621.0
aF14.788
aF13194.0
aF14.731
aF14336.0
aF14.643
aa(lp2
F16560.0
aF14.544
aF20226.0
aF14.452
aF24239.0
aF14.375
aa(lp3
F26588.0
aF13.385
aF27500.0
aF12.492
aF27798.0
aF12.06
aa(lp4
F27989.0
aF11.467
aF27998.0
aF11.232
aF27996.0
aF11.158
aa(lp5
F27988.0
aF11.025
aF27922.0
aF10.639
aF27716.0
aF10.159
aa(lp6
F27538.0
aF9.8096
aF27476.0
aF9.6962
aF27442.0
aF9.6342
aa(lp7
F27394.0
aF9.5499
aF27277.0
aF9.3837
aF27225.0
aF9.313
aa(lp8
F27200.0
aF9.2834
aF27021.0
aF8.9613
aF27586.0
aF8.1744
aa(lp9
F27858.0
aF7.8902
aF27909.0
aF7.8422
aF28019.0
aF7.7171
aa(lp10
F28431.0
aF7.3125
aF29159.0
aF6.7666
aF30097.0
aF6.2704
aa(lp11
F30810.0
aF5.9575
aF31061.0
aF5.8564
aF31231.0
aF5.7903
aa(lp12
F31310.0
aF5.7604
aF31353.0
aF5.7441
aF31400.0
aF5.7263
aa(lp13
F31487.0
aF5.6941
aF31711.0
aF5.6125
aF32254.0
aF5.4271
aa(lp14
F32721.0
aF5.2802
aF33433.0
aF5.0665
aF33982.0
aF4.9096
aa(lp15
F34770.0
aF4.6954
aF35059.0
aF4.6154
aF35104.0
aF4.6031
aa(lp16
F35309.0
aF4.5472
aF35819.0
aF4.4105
aF36037.0
aF4.3533
aa(lp17
F36127.0
aF4.3304
aF36241.0
aF4.3013
aF36462.0
aF4.2452
aa(lp18
F36574.0
aF4.2169
aF36661.0
aF4.1949
aF37269.0
aF4.0421
aa(lp19
F38110.0
aF3.6773
aF38286.0
aF3.5477
aF38312.0
aF3.53
aa(lp20
F38335.0
aF3.5139
aF38373.0
aF3.4878
aF38532.0
aF3.3817
aa(lp21
F38890.0
aF3.1347
aF39038.0
aF3.0446
aF39066.0
aF3.03
aa(lp22
F39148.0
aF2.9878
aF39506.0
aF2.8898
aF39703.0
aF2.8426
aa(lp23
F39848.0
aF2.8093
aF40458.0
aF2.7123
aF42060.0
aF2.4961
aa(lp24
F42703.0
aF2.4184
aF42797.0
aF2.4075
aF42951.0
aF2.3897
aa(lp25
F43282.0
aF2.3523
aF43702.0
aF27.531
aF44104.0
aF26.391
aa(lp26
F43825.0
aF25.641
aF43386.0
aF24.49
aF44284.0
aF23.403
aa(lp27
F44566.0
aF23.077
aF44615.0
aF23.022
aF44668.0
aF22.962
aa(lp28
F44765.0
aF22.852
aF45283.0
aF22.281
aF46769.0
aF20.905
aa(lp29
F47393.0
aF20.394
aF47511.0
aF20.299
aF47920.0
aF19.974
aa(lp30
F48890.0
aF19.207
aF49277.0
aF18.903
aF49388.0
aF18.817
aa(lp31
F49692.0
aF18.583
aF50408.0
aF18.043
aF50788.0
aF17.762
aa(lp32
F51118.0
aF17.525
aF51279.0
aF17.41
aF51389.0
aF17.332
aa(lp33
F51490.0
aF17.261
aF51654.0
aF17.146
aF51753.0
aF17.076
aa(lp34
F51862.0
aF17.0
aF51948.0
aF16.94
aF52015.0
aF16.894
aa(lp35
F52069.0
aF16.856
aF19143.0
aF16.531
aF19761.0
aF15.716
aa(lp36
F19992.0
aF15.406
aF20041.0
aF15.339
aF20138.0
aF15.206
aa(lp37
F20349.0
aF14.913
aF19953.0
aF14.784
aF19603.0
aF14.72
aa(lp38
F18572.0
aF14.537
aF16087.0
aF14.109
aF11401.0
aF13.357
aa(lp39
F12630.0
aF12.717
aF11746.0
aF12.447
aF11890.0
aF12.106
aa(lp40
F11991.0
aF11.852
aF10719.0
aF11.777
aF8901.4
aF11.753
aa(lp41
F6961.4
aF11.621
aF6847.9
aF11.183
aF6667.7
aF10.674
aa(lp42
F6474.3
aF10.141
aF6387.4
aF9.8732
aF6320.4
aF9.6556
aa(lp43
F6295.1
aF9.5707
aF6184.7
aF9.5523
aF5665.0
aF9.2973
aa(lp44
F5498.4
aF8.6591
aF5447.8
aF8.4164
aF3803.7
aF8.3539
aa(lp45
F3774.2
aF8.1909
aF3724.7
aF7.8224
aF3728.2
aF7.6825
aa(lp46
F3730.0
aF7.6546
aF3735.6
aF7.5585
aF3756.0
aF7.3299
aa(lp47
F3768.0
aF7.2294
aF3775.0
aF7.1778
aF3904.8
aF6.6877
aa(lp48
F4346.4
aF5.5855
aF4543.4
aF5.2275
aF4532.5
aF5.1933
aa(lp49
F4546.5
aF5.1653
aF4568.0
aF5.1231
aF4633.4
aF4.9992
aa(lp50
F10415.0
aF4.7171
aF9806.7
aF4.6135
aF9439.6
aF4.5989
aa(lp51
F9171.0
aF4.5882
aF8804.0
aF4.5736
aF8535.3
aF4.563
aa(lp52
F8168.3
aF4.5485
aF5952.5
aF4.4625
aF4609.3
aF4.2509
aa(lp53
F4646.7
aF4.1719
aF4653.0
aF4.159
aF4663.3
aF4.1378
aa(lp54
F4685.4
aF4.0934
aF4695.9
aF4.0727
aF4702.3
aF4.0601
aa(lp55
F4716.3
aF4.0328
aF4748.6
aF3.9715
aF4762.9
aF3.945
aa(lp56
F4769.4
aF3.933
aF4776.0
aF3.9209
aF4787.5
aF3.9001
aa(lp57
F4792.9
aF3.8903
aF4795.7
aF3.8844
aF4808.9
aF3.8597
aa(lp58
F4843.9
aF3.7988
aF4895.0
aF3.7129
aF5001.5
aF3.5451
aa(lp59
F5025.6
aF3.4823
aF4984.3
aF3.4721
aF5050.7
aF3.3891
aa(lp60
F5226.9
aF3.1839
aF4193.5
aF3.1112
aF1194.0
aF3.1067
aa(lp61
F91.219
aF3.0362
aF81.022
aF2.8577
aF73.437
aF2.6997
aa(lp62
F63.9
aF2.4581
aF61.082
aF2.3742
aF60.881
aF2.3679
aa(lp63
F34.854
aF2.3413
aF34.331
aF2.3066
aF33.837
aF2.2703
aa(lp64
F33.405
aF2.2346
aF33.114
aF2.2107
aF32.704
aF2.1736
aa(lp65
F32.552
aF2.1582
aF32.5
aF2.1526
aF32.159
aF2.1119
aa(lp66
F31.51
aF1.9744
aF30.55
aF1.8117
aF30.21
aF1.6984
aa(lp67
F30.17
aF1.6669
aF23.182
aF1.6588
aF22.818
aF1.629
aa(lp68
F21.8
aF1.5405
aF20.968
aF1.4581
aF20.751
aF1.434
aa(lp69
F20.721
aF1.4307
aF20.474
aF1.4026
aF21.297
aF1.3324
aa(lp70
F21.712
aF1.3068
aF21.761
aF1.3038
aF22.147
aF1.281
aa(lp71
F23.177
aF1.2238
aF22.168
aF1.2025
aF19.382
aF1.2002
aa(lp72
F6.705
aF1.1823
aF7.5356
aF1.138
aF7.8609
aF1.1215
aa(lp73
F7.9091
aF1.1191
aF7.9414
aF1.0874
aF7.1685
aF1.0085
aa(lp74
F6.8783
aF0.98
aF4.7868
aF0.97593
aF4.798
aF0.96833
aa(lp75
F4.8084
aF0.96153
aF4.8115
aF0.95954
aF4.844
aF0.93946
aa(lp76
F4.9368
aF0.88907
aF4.9743
aF0.87085
aF4.978
aF0.86909
aa(lp77
F5.0107
aF0.8542
aF4.9936
aF0.81677
aF4.9866
aF0.80243
aa(lp78
F4.4429
aF0.79928
aF4.418
aF0.78702
aF4.3578
aF0.75767
aa(lp79
F4.3352
aF0.74675
aF4.3322
aF0.7453
aF4.3241
aF0.74142
aa(lp80
F4.3002
aF0.73003
aF4.2766
aF0.71886
aF4.2565
aF0.70945
aa(lp81
F4.2076
aF0.68675
aF4.1452
aF0.65852
aF4.0989
aF0.63787
aa(lp82
F4.0682
aF0.62236
aF4.016
aF0.59568
aF3.9963
aF0.5859
aa(lp83
F3.9942
aF0.58484
aF3.9871
aF0.58137
aF1.4995
aF0.57307
aa(lp84
F1.5017
aF0.56969
aF1.5024
aF0.56867
aF1.5167
aF0.54809
aa(lp85
F1.5242
aF0.49736
aF1.5257
aF0.47969
aF1.5258
aF0.47805
aa(lp86
F1.5264
aF0.47162
aF1.5287
aF0.45051
aF1.5321
aF0.42473
aa(lp87
F1.5425
aF0.40624
aF1.5455
aF0.40137
aF1.5457
aF0.40104
aa(lp88
F1.5473
aF0.39834
aF1.5534
aF0.38885
aF1.5613
aF0.37689
aa(lp89
F1.5674
aF0.36804
aF1.5704
aF0.3638
aF1.5751
aF0.3573
aa(lp90
F1.5798
aF0.35095
aF1.5813
aF0.34892
aF1.5817
aF0.34838
aa(lp91
F1.5829
aF0.34678
aF1.5858
aF0.34301
aF1.587
aF0.34145
aa(lp92
F1.5874
aF0.34092
aF1.5898
aF0.33781
aF1.5983
aF0.32713
aa(lp93
F1.6095
aF0.31384
aF1.6181
aF0.30411
aF1.6206
aF0.30133
aa(lp94
F1.6212
aF0.30065
aF1.6252
aF0.29639
aF1.6355
aF0.28575
aa(lp95
F1.6394
aF0.28182
aF1.6398
aF0.28141
aF1.6413
aF0.27997
aa(lp96
F0.96838
aF0.27648
aF0.96854
aF0.27515
aF0.96856
aF0.27494
aa(lp97
F0.96908
aF0.2707
aF0.97048
aF0.2597
aF0.97101
aF0.25569
aa(lp98
F0.97106
aF0.25532
aF0.97132
aF0.25336
aF0.97223
aF0.24666
aa(lp99
F0.9734
aF0.23825
aF0.97427
aF0.23204
aF0.97465
aF0.23031
aa(lp100
F0.97481
aF0.22999
aF0.97595
aF0.22765
aF0.97891
aF0.22172
aa(lp101
F0.87794
aF0.21959
aF0.87794
aF0.21957
aF0.87798
aF0.21944
aa(lp102
F0.8785
aF0.21745
aF0.8838
aF0.21242
aF0.88738
aF0.21052
aa(lp103
F0.88792
aF0.21023
aF0.8922
aF0.20799
aF0.90336
aF0.20228
aa(lp104
F0.90764
aF0.20014
aF0.90819
aF0.19987
aF0.91108
aF0.19845
aa(lp105
F0.91751
aF0.19489
aF0.91584
aF0.19356
aF0.91563
aF0.19343
aa(lp106
F0.88248
aF0.1931
aF0.86877
aF0.19232
aF0.86802
aF0.19186
aa(lp107
F0.8672
aF0.19134
aF0.86675
aF0.19107
aF0.86634
aF0.19081
aa(lp108
F0.86341
aF0.189
aF0.853
aF0.18274
aF0.83945
aF0.17496
aa(lp109
F0.82903
aF0.16928
aF0.82473
aF0.16702
aF0.8206
aF0.16489
aa(lp110
F0.76141
aF0.16369
aF0.76275
aF0.16204
aF0.7647
aF0.15966
aa(lp111
F0.76665
aF0.15732
aF0.76798
aF0.15575
aF0.76932
aF0.15418
aa(lp112
F0.77307
aF0.14988
aF0.77697
aF0.1445
aF0.77993
aF0.14055
aa(lp113
F0.78151
aF0.13867
aF0.78362
aF0.13641
aF0.7855
aF0.13442
aa(lp114
F0.78853
aF0.1313
aF0.79083
aF0.12898
aF0.79408
aF0.12579
aa(lp115
F0.79538
aF0.12453
aF0.79283
aF0.12424
aF0.79435
aF0.12301
aa(lp116
F0.79814
aF0.12
aF0.80027
aF0.11835
aF0.8028
aF0.11642
aa(lp117
F0.80533
aF0.11453
aF0.80689
aF0.11338
aF0.80916
aF0.11175
aa(lp118
F0.81006
aF0.11112
aF0.81024
aF0.11099
aF0.81084
aF0.11057
aa(lp119
F0.81229
aF0.10956
aF0.81292
aF0.10912
aF0.81319
aF0.10894
aa(lp120
F0.81409
aF0.10832
aF0.8171
aF0.10627
aF0.82101
aF0.10368
aa(lp121
F0.824
aF0.10175
aF0.82485
aF0.1012
aF0.82503
aF0.10108
aa(lp122
F0.82653
aF0.10013
aF0.83058
aF0.097704
aF0.83377
aF0.096168
aa(lp123
F0.83755
aF0.094378
aF0.83902
aF0.093696
aF0.83924
aF0.093593
aa(lp124
F0.84107
aF0.09275
aF0.84583
aF0.090594
aF0.84857
aF0.089375
aa(lp125
F0.85132
aF0.088172
aF0.85442
aF0.08684
aF0.8601
aF0.084448
aa(lp126
F0.86269
aF0.083382
aF0.8641
aF0.082806
aF0.8647
aF0.082564
aa(lp127
F0.86491
aF0.082477
aF0.86602
aF0.082031
aF0.87022
aF0.080394
aa(lp128
F0.87685
aF0.077926
aF0.88428
aF0.075253
aF0.89083
aF0.072982
aa(lp129
F0.895
aF0.07157
aF0.89703
aF0.070896
aF0.90074
aF0.069684
aa(lp130
F0.90557
aF0.068141
aF0.90925
aF0.066987
aF0.9103
aF0.06666
aa(lp131
F0.91052
aF0.066593
aF0.9108
aF0.066507
aF0.91134
aF0.066341
aa(lp132
F0.91162
aF0.066255
aF0.91183
aF0.066189
aF0.91282
aF0.065888
aa(lp133
F0.91644
aF0.064791
aF0.92206
aF0.063127
aF0.92826
aF0.061313
aa(lp134
F0.93367
aF0.059761
aF0.93712
aF0.058792
aF0.93901
aF0.058267
aa(lp135
F0.94288
aF0.057208
aF0.94806
aF0.055863
aF0.95189
aF0.054859
aa(lp136
F0.95382
aF0.054368
aF0.95631
aF0.053751
aF0.9573
aF0.053509
aa(lp137
F0.95751
aF0.053458
aF0.95852
aF0.053211
aF0.96229
aF0.052303
aa(lp138
F0.96812
aF0.050929
aF0.97465
aF0.049431
aF0.98039
aF0.048151
aa(lp139
F0.98405
aF0.047351
aF0.98602
aF0.046926
aF0.99001
aF0.046083
aa(lp140
F0.9952
aF0.045011
aF0.99914
aF0.044211
aF1.0012
aF0.043791
aa(lp141
F1.0051
aF0.043018
aF1.0102
aF0.042036
aF1.0141
aF0.041301
aa(lp142
F1.0158
aF0.040982
aF1.0176
aF0.04064
aF1.0198
aF0.040223
aa(lp143
F1.0241
aF0.039438
aF1.0275
aF0.038832
aF1.0324
aF0.037965
aa(lp144
F1.0343
aF0.037642
aF1.0344
aF0.037609
aF1.0353
aF0.037455
aa(lp145
F1.0376
aF0.03707
aF1.0393
aF0.036771
aF1.0428
aF0.036178
aa(lp146
F1.0474
aF0.035424
aF1.0508
aF0.034859
aF1.0523
aF0.034619
aa(lp147
F1.0539
aF0.034372
aF1.0545
aF0.034266
aF1.0548
aF0.034223
aa(lp148
F1.0551
aF0.03417
aF1.0557
aF0.03407
aF1.056
aF0.034022
aa(lp149
F1.0562
aF0.033994
aF1.0572
aF0.033832
aF1.0598
aF0.033423
aa(lp150
F1.0611
aF0.03323
aF1.0619
aF0.033105
aF1.0622
aF0.033049
aa(lp151
F1.0624
aF0.033022
aF1.0639
aF0.032791
aF1.0678
aF0.032197
aa(lp152
F1.0693
aF0.031974
aF1.0695
aF0.031947
aF1.07
aF0.03187
aa(lp153
F1.0712
aF0.031686
aF1.0718
aF0.03161
aF1.0719
aF0.031584
aa(lp154
F1.0738
aF0.031318
aF1.0785
aF0.030633
aF1.0803
aF0.030377
aa(lp155
F1.0805
aF0.030353
aF1.0839
aF0.029868
aF1.093
aF0.028617
aa(lp156
F1.0995
aF0.027743
aF1.1083
aF0.026602
aF1.1115
aF0.026192
aa(lp157
F1.1116
aF0.026172
aF1.1125
aF0.026058
aF1.1157
aF0.025666
aa(lp158
F1.1197
aF0.025165
aF1.1227
aF0.02479
aF1.1247
aF0.024553
aa(lp159
F1.1289
aF0.024043
aF1.1344
aF0.023398
aF1.1385
aF0.022918
aa(lp160
F1.1406
aF0.02267
aF1.1436
aF0.022339
aF1.1452
aF0.022157
aa(lp161
F1.1474
aF0.021909
aF1.1508
aF0.02153
aF1.1546
aF0.021111
aa(lp162
F1.1579
aF0.020749
aF1.16
aF0.020521
aF1.1606
aF0.020459
aa(lp163
F1.1607
aF0.020444
aF1.162
aF0.02031
aF1.1652
aF0.019964
aa(lp164
F1.1659
aF0.019834
aF1.1651
aF0.01982
aF1.1658
aF0.019735
aa(lp165
F1.1678
aF0.019522
aF1.1686
aF0.019439
aF1.1687
aF0.019425
aa(lp166
F1.1697
aF0.019316
aF1.1734
aF0.018933
aF1.1779
aF0.018448
aa(lp167
F1.1815
aF0.018087
aF1.1823
aF0.017988
aF1.1821
aF0.017975
aa(lp168
F1.1828
aF0.017902
aF1.1854
aF0.017647
aF1.1886
aF0.01732
aa(lp169
F1.1911
aF0.017076
aF1.1918
aF0.017007
aF1.192
aF0.016995
aa(lp170
F1.1927
aF0.01692
aF1.1954
aF0.016656
aF1.1989
aF0.01632
aa(lp171
F1.2016
aF0.016068
aF1.2029
aF0.015935
aF1.2055
aF0.015691
aa(lp172
F1.2088
aF0.015379
aF1.2113
aF0.015146
aF1.2126
aF0.015023
aa(lp173
F1.215
aF0.014796
aF1.2182
aF0.014507
aF1.2206
aF0.01429
aa(lp174
F1.2218
aF0.014176
aF1.2242
aF0.013965
aF1.2272
aF0.013696
aa(lp175
F1.2294
aF0.013495
aF1.2305
aF0.013404
aF1.232
aF0.013264
aa(lp176
F1.234
aF0.013085
aF1.2356
aF0.012949
aF1.236
aF0.01291
aa(lp177
F1.2361
aF0.012902
aF1.2369
aF0.01283
aF1.239
aF0.012645
aa(lp178
F1.2399
aF0.012559
aF1.2405
aF0.012507
aF1.241
aF0.012454
aa(lp179
F1.242
aF0.012362
aF1.2434
aF0.012234
aF1.2462
aF0.01198
aa(lp180
F1.2477
aF0.011851
aF1.2488
aF0.01175
aF1.2493
aF0.011711
aa(lp181
F1.2494
aF0.011704
aF1.2499
aF0.011657
aF1.2517
aF0.011493
aa(lp182
F1.2521
aF0.011283
aF1.2537
aF0.011125
aF1.2542
aF0.011081
aa(lp183
F1.2542
aF0.011074
aF1.2547
aF0.01103
aF1.2562
aF0.010877
aa(lp184
F1.2582
aF0.010681
aF1.2597
aF0.010534
aF1.2604
aF0.010457
aa(lp185
F1.2618
aF0.010314
aF1.2636
aF0.010131
aF1.2649
aF0.0099936
aa(lp186
F1.2656
aF0.0099214
aF1.2668
aF0.0097876
aF1.2684
aF0.0096164
aa(lp187
F1.2695
aF0.0094879
aF1.2704
aF0.0093864
aF1.272
aF0.0092048
aa(lp188
F1.2728
aF0.0091031
aF1.2736
aF0.0090047
aF1.274
aF0.0089623
aa(lp189
F1.2741
aF0.0089439
aF1.2742
aF0.0089353
aF1.2742
aF0.0089301
aa(lp190
F1.2747
aF0.0088672
aF1.276
aF0.0087034
aF1.2764
aF0.0086435
aa(lp191
F1.2764
aF0.008641
aF1.2767
aF0.0086053
aF1.2774
aF0.0085113
aa(lp192
F1.2776
aF0.0084754
aF1.2777
aF0.0084705
aF1.2779
aF0.0084358
aa(lp193
F1.2785
aF0.0083465
aF1.2792
aF0.0082446
aF1.2803
aF0.0080586
aa(lp194
F1.281
aF0.0079464
aF1.2817
aF0.0078239
aF1.2819
aF0.0077708
aa(lp195
F1.2821
aF0.0077468
aF1.2821
aF0.0077365
aF1.2821
aF0.0077321
aa(lp196
F1.2823
aF0.0076979
aF1.2828
aF0.0076097
aF1.2829
aF0.0075775
aa(lp197
F1.2829
aF0.0075773
aF1.2829
aF0.0075771
aF1.2832
aF0.0075202
aa(lp198
F1.2838
aF0.0073678
aF1.284
aF0.0073115
aF1.284
aF0.0073075
aa(lp199
F1.284
aF0.0073045
aF1.284
aF0.0073005
aF1.284
aF0.0072975
aa(lp200
F1.2841
aF0.0072935
aF1.2841
aF0.0072905
aF1.2841
aF0.0072865
aa(lp201
F1.2841
aF0.007274
aF1.2842
aF0.0072439
aF1.2843
aF0.0072315
aa(lp202
F1.2843
aF0.0072275
aF1.2844
aF0.0072013
aF1.2845
aF0.0071343
aa(lp203
F1.2847
aF0.0070929
aF1.2848
aF0.0070464
aF1.2848
aF0.0070288
aa(lp204
F1.2848
aF0.0070269
aF1.2849
aF0.0069793
aF1.2851
aF0.0068531
aa(lp205
F1.2852
aF0.0067552
aF1.2852
aF0.0065626
aF1.2848
aF0.0063219
aa(lp206
F1.2842
aF0.0061451
aF1.2838
aF0.0060396
aF1.2825
aF0.0058229
aa(lp207
F1.2802
aF0.0055551
aF1.2781
aF0.0053605
aF1.277
aF0.0052789
aa(lp208
F1.2753
aF0.0051637
aF1.2729
aF0.0050183
aF1.2708
aF0.0049104
aa(lp209
F1.2702
aF0.0048813
aF1.2702
aF0.0048789
aF1.2697
aF0.0048571
aa(lp210
F1.2679
aF0.0047741
aF1.2648
aF0.0046484
aF1.2611
aF0.0045116
aa(lp211
F1.2575
aF0.0043948
aF1.2551
aF0.0043219
aF1.2534
aF0.004273
aa(lp212
F1.2488
aF0.0041515
aF1.2411
aF0.003971
aF1.2316
aF0.0037794
aa(lp213
F1.2224
aF0.0036198
aF1.2162
aF0.003522
aF1.2145
aF0.0034976
aa(lp214
F1.2144
aF0.003496
aF1.2122
aF0.0034634
aF1.2059
aF0.0033776
aa(lp215
F1.2018
aF0.0033238
aF1.1948
aF0.0032386
aF1.1852
aF0.0031318
aa(lp216
F1.1775
aF0.0030531
aF1.1736
aF0.0030154
aF1.1669
aF0.002952
aa(lp217
F1.1577
aF0.0028719
aF1.1505
aF0.0028124
aF1.1453
aF0.0027716
aa(lp218
F1.1363
aF0.0027039
aF1.1256
aF0.0026281
aF1.1044
aF0.0024937
aa(lp219
F1.0918
aF0.0024208
aF1.0789
aF0.0023515
aF1.0741
aF0.0023265
aa(lp220
F1.0739
aF0.0023256
aF1.0687
aF0.0022994
aF1.0542
aF0.0022306
aa(lp221
F1.0452
aF0.0021901
aF1.0305
aF0.0021277
aF1.007
aF0.0020351
aa(lp222
F0.97956
aF0.0019371
aF0.9543
aF0.0018556
aF0.93768
aF0.0018059
aa(lp223
F0.92873
aF0.0017801
aF0.91059
aF0.0017302
aF0.88645
aF0.001668
aa(lp224
F0.86753
aF0.0016224
aF0.86234
aF0.0016103
aF0.8621
aF0.0016098
aa(lp225
F0.85544
aF0.0015946
aF0.8287
aF0.0015363
aF0.7861
aF0.0014513
aa(lp226
F0.73629
aF0.0013632
aF0.69125
aF0.0012915
aF0.66197
aF0.0012483
aa(lp227
F0.65448
aF0.0012377
aF0.65421
aF0.0012374
aF0.652
aF0.0012343
aa(lp228
F0.64349
aF0.0012225
aF0.63022
aF0.0012046
aF0.61522
aF0.0011848
aa(lp229
F0.60192
aF0.0011676
aF0.59337
aF0.0011568
aF0.58455
aF0.0011458
aa(lp230
F0.56626
aF0.0011235
aF0.55573
aF0.001111
aF0.54129
aF0.0010942
aa(lp231
F0.52227
aF0.001073
aF0.50774
aF0.0010571
aF0.49723
aF0.0010457
aa(lp232
F0.47234
aF0.0010196
aF0.44006
aF0.00098697
aF0.41521
aF0.00096302
aa(lp233
F0.39873
aF0.00094762
aF0.37209
aF0.00092322
aF0.36233
aF0.00091445
aa(lp234
F0.36205
aF0.00091421
aF0.36037
aF0.00091271
aF0.35607
aF0.00090887
aa(lp235
F0.3544
aF0.00090739
aF0.35414
aF0.00090715
aF0.35342
aF0.00090652
aa(lp236
F0.35173
aF0.00090502
aF0.35101
aF0.00090438
aF0.35089
aF0.00090428
aa(lp237
F0.35086
aF0.00090425
aF0.34841
aF0.00090208
aF0.33931
aF0.00089407
aa(lp238
F0.32751
aF0.00088378
aF0.31852
aF0.00087602
aF0.31136
aF0.00086995
aa(lp239
F0.29834
aF0.00085912
aF0.28785
aF0.00085044
aF0.27227
aF0.00083763
aa(lp240
F0.26387
aF0.00083076
aF0.25357
aF0.00082238
aF0.2403
aF0.00081164
aa(lp241
F0.23027
aF0.00080356
aF0.22234
aF0.00079719
aF0.20136
aF0.00078054
aa(lp242
F0.16986
aF0.00075571
aF0.13647
aF0.00072919
aF0.10942
aF0.00070698
aa(lp243
F0.093436
aF0.00069331
aF0.089626
aF0.00068992
aF0.08946
aF0.00068977
aa(lp244
F0.085864
aF0.00068652
aF0.073291
aF0.00067474
aF0.059011
aF0.00065988
aa(lp245
F0.050192
aF0.00064887
aF0.040836
aF0.00064312
aF0.041287
aF0.00063256
aa(lp246
F0.04188
aF0.00061923
aF0.042338
aF0.00060934
aF0.042587
aF0.00060411
aa(lp247
F0.043062
aF0.00059439
aF0.043687
aF0.00058212
aF0.04417
aF0.00057303
aa(lp248
F0.044301
aF0.00057061
aF0.044307
aF0.0005705
aF0.044465
aF0.00056762
aa(lp249
F0.045055
aF0.00055716
aF0.045833
aF0.00054403
aF0.046434
aF0.00053436
aa(lp250
F0.046669
aF0.0005307
aF0.046965
aF0.00052615
aF0.047429
aF0.00051922
aa(lp251
F0.047956
aF0.0005116
aF0.048425
aF0.00050503
aF0.048728
aF0.0005009
aa(lp252
F0.048938
aF0.00049809
aF0.049442
aF0.00049149
aF0.050104
aF0.00048313
aa(lp253
F0.050616
aF0.00047691
aF0.051029
aF0.00047226
aF0.051771
aF0.0004642
aa(lp254
F0.052046
aF0.00046129
aF0.052053
aF0.00046122
aF0.052284
aF0.00045881
aa(lp255
F0.05291
aF0.00045243
aF0.053252
aF0.00044903
aF0.053704
aF0.00044464
aa(lp256
F0.054409
aF0.00043798
aF0.05521
aF0.00043071
aF0.055922
aF0.00042448
aa(lp257
F0.056381
aF0.00042058
aF0.05665
aF0.00041835
aF0.05727
aF0.0004133
aa(lp258
F0.058241
aF0.00040569
aF0.059346
aF0.00039747
aF0.060329
aF0.0003905
aa(lp259
F0.060964
aF0.00038617
aF0.061125
aF0.0003851
aF0.061132
aF0.00038505
aa(lp260
F0.061263
aF0.00038418
aF0.061779
aF0.00038081
aF0.062586
aF0.00037569
aa(lp261
F0.063502
aF0.0003701
aF0.064318
aF0.00036532
aF0.064844
aF0.00036233
aa(lp262
F0.065106
aF0.00036088
aF0.065629
aF0.000358
aF0.066448
aF0.00035364
aa(lp263
F0.067377
aF0.00034888
aF0.068204
aF0.0003448
aF0.068736
aF0.00034224
aa(lp264
F0.068872
aF0.0003416
aF0.068879
aF0.00034157
aF0.06905
aF0.00034077
aa(lp265
F0.069525
aF0.00033856
aF0.070587
aF0.0003338
aF0.071653
aF0.00032921
aa(lp266
F0.072284
aF0.00032659
aF0.07316
aF0.00032305
aF0.073753
aF0.00032073
aa(lp267
F0.074336
aF0.0003185
aF0.074727
aF0.00031703
aF0.07511
aF0.00031562
aa(lp268
F0.075626
aF0.00031374
aF0.076084
aF0.00031211
aF0.076752
aF0.00030977
aa(lp269
F0.077492
aF0.00030726
aF0.078847
aF0.00030283
aF0.079341
aF0.00030125
aa(lp270
F0.079345
aF0.00030123
aF0.079346
aF0.00030123
aF0.079382
aF0.00030111
aa(lp271
F0.07948
aF0.00030079
aF0.079518
aF0.00030066
aF0.079526
aF0.00030063
aa(lp272
F0.079803
aF0.00029972
aF0.080557
aF0.00029728
aF0.080843
aF0.00029639
aa(lp273
F0.08085
aF0.00029637
aF0.081135
aF0.0002955
aF0.082196
aF0.00029233
aa(lp274
F0.083591
aF0.00028836
aF0.08467
aF0.00028543
aF0.085258
aF0.00028389
aa(lp275
F0.086388
aF0.00028101
aF0.087877
aF0.00027742
aF0.089026
aF0.00027477
aa(lp276
F0.090084
aF0.00027242
aF0.093133
aF0.00026614
aF0.09796
aF0.00025739
aa(lp277
F0.10357
aF0.00024881
aF0.10869
aF0.00024219
aF0.11205
aF0.00023836
aa(lp278
F0.11377
aF0.00023654
aF0.11735
aF0.00023302
aF0.12306
aF0.00022808
aa(lp279
F0.12968
aF0.00022318
aF0.13571
aF0.00021936
aF0.13971
aF0.00021713
aa(lp280
F0.14254
aF0.00021567
aF0.14758
aF0.00021329
aF0.15052
aF0.00021201
aa(lp281
F0.15344
aF0.00021082
aF0.15502
aF0.00021019
aF0.15642
aF0.00020966
aa(lp282
F0.15763
aF0.00020921
aF0.15953
aF0.00020853
aF0.16023
aF0.00020828
aa(lp283
F0.16085
aF0.00020806
aF0.16256
aF0.00020748
aF0.16417
aF0.00020695
aa(lp284
F0.16788
aF0.00020578
aF0.17277
aF0.00020436
aF0.17658
aF0.00020333
aa(lp285
F0.17807
aF0.00020295
aF0.17985
aF0.0002025
aF0.18219
aF0.00020194
aa(lp286
F0.184
aF0.00020152
aF0.18691
aF0.00020086
aF0.19687
aF0.00019884
aa(lp287
F0.21286
aF0.00019617
aF0.23166
aF0.00019372
aF0.24897
aF0.00019194
aa(lp288
F0.26039
aF0.00019095
aF0.26428
aF0.00019065
aF0.26808
aF0.00019036
aa(lp289
F0.27307
aF0.00019
aF0.27692
aF0.00018974
aF0.27808
aF0.00018966
aa(lp290
F0.27854
aF0.00018963
aF0.27914
aF0.00018959
aF0.2796
aF0.00018956
aa(lp291
F0.28044
aF0.00018951
aF0.2824
aF0.00018938
aF0.28525
aF0.00018921
aa(lp292
F0.29113
aF0.00018886
aF0.2933
aF0.00018873
aF0.29331
aF0.00018873
aa(lp293
F0.29332
aF0.00018873
aF0.29332
aF0.00018873
aF0.29471
aF0.00018865
aa(lp294
F0.29853
aF0.00018845
aF0.30054
aF0.00018834
aF0.30219
aF0.00018826
aa(lp295
F0.3038
aF0.00018817
aF0.3076
aF0.00018798
aF0.31259
aF0.00018775
aa(lp296
F0.31644
aF0.00018757
aF0.31949
aF0.00018744
aF0.32504
aF0.0001872
aa(lp297
F0.32905
aF0.00018704
aF0.33703
aF0.00018674
aF0.34966
aF0.00018629
aa(lp298
F0.36418
aF0.00018584
aF0.37718
aF0.00018548
aF0.38564
aF0.00018526
aa(lp299
F0.3898
aF0.00018516
aF0.39809
aF0.00018497
aF0.41116
aF0.00018469
aa(lp300
F0.42618
aF0.0001844
aF0.43971
aF0.00018417
aF0.4485
aF0.00018402
aa(lp301
F0.45438
aF0.00018393
aF0.4645
aF0.00018379
aF0.46849
aF0.00018373
aa(lp302
F0.4692
aF0.00018372
aF0.46965
aF0.00018372
aF0.47015
aF0.00018371
aa(lp303
F0.47124
aF0.0001837
aF0.47371
aF0.00018366
aF0.47688
aF0.00018362
aa(lp304
F0.4831
aF0.00018354
aF0.48562
aF0.00018351
aF0.48626
aF0.0001835
aa(lp305
F0.48672
aF0.0001835
aF0.48734
aF0.00018349
aF0.48867
aF0.00018347
aa(lp306
F0.4917
aF0.00018344
aF0.49363
aF0.00018342
aF0.4959
aF0.00018339
aa(lp307
F0.49673
aF0.00018338
aF0.49674
aF0.00018338
aF0.49675
aF0.00018338
aa(lp308
F0.49676
aF0.00018338
aF0.49842
aF0.00018336
aF0.50519
aF0.00018329
aa(lp309
F0.51624
aF0.00018317
aF0.52976
aF0.00018304
aF0.54345
aF0.00018291
aa(lp310
F0.5549
aF0.00018282
aF0.56203
aF0.00018276
aF0.56949
aF0.0001827
aa(lp311
F0.59268
aF0.00018254
aF0.62973
aF0.00018231
aF0.67293
aF0.00018209
aa(lp312
F0.71238
aF0.00018193
aF0.7383
aF0.00018184
aF0.74594
aF0.00018181
aa(lp313
F0.74978
aF0.0001818
aF0.75363
aF0.00018179
aF0.76121
aF0.00018176
aa(lp314
F0.77271
aF0.00018173
aF0.78647
aF0.00018169
aF0.79155
aF0.00018167
aa(lp315
F0.79158
aF0.00018167
aF0.79382
aF0.00018167
aF0.79992
aF0.00018165
aa(lp316
F0.80336
aF0.00018164
aF0.80666
aF0.00018163
aF0.81068
aF0.00018162
aa(lp317
F0.82231
aF0.00018159
aF0.84178
aF0.00018155
aF0.86668
aF0.00018149
aa(lp318
F0.89377
aF0.00018144
aF0.91941
aF0.00018139
aF0.93999
aF0.00018136
aa(lp319
F0.95252
aF0.00018134
aF0.95752
aF0.00018133
aF0.96286
aF0.00018132
aa(lp320
F0.98752
aF0.00018128
aF1.0509
aF0.0001812
aF1.0833
aF0.00018117
aa(lp321
F1.1137
aF0.00018114
aF1.1445
aF0.00018111
aF1.1535
aF0.0001811
aa(lp322
F1.1535
aF0.0001811
aF1.1611
aF0.00018109
aF1.1819
aF0.00018107
aa(lp323
F1.1895
aF0.00018107
aF1.1896
aF0.00018107
aF1.3001
aF0.00018099
aa(lp324
F1.6273
aF0.00018085
aF1.8966
aF0.00018078
aF2.3075
aF0.00018072
aa(lp325
F2.6465
aF0.00018069
aF3.1659
aF0.00018066
aF3.5943
aF0.00018065
aa(lp326
F4.2516
aF0.00018063
aF4.7619
aF0.00018063
aF5.4973
aF0.00018062
aa(lp327
F5.8402
aF0.00018062
aF6.0051
aF0.00018062
aF6.3263
aF0.00018062
aa(lp328
F7.4031
aF0.00018061
aF9.1484
aF0.00018061
aF11.103
aF0.0001806
aa(lp329
F12.566
aF0.0001806
aF13.386
aF0.0001806
aF15.152
aF0.0001806
aa(lp330
F17.996
aF0.0001806
aF21.182
aF0.0001806
aF23.579
aF0.0001806
aa(lp331
F24.879
aF0.0001806
aF27.592
aF0.0001806
aF32.012
aF0.0001806
aa(lp332
F37.06
aF0.0001806
aF40.939
aF0.0001806
aF43.073
aF0.0001806
aa(lp333
F47.598
aF0.0001806
aF55.175
aF0.0001806
aF64.122
aF0.0001806
aa(lp334
F71.186
aF0.0001806
aF75.135
aF0.0001806
aF83.633
aF0.0001806
aa(lp335
F98.165
aF0.0001806
aF115.65
aF0.0001806
aF129.6
aF0.0001806
aa(lp336
F137.42
aF0.0001806
aF154.27
aF0.0001806
aF182.97
aF0.0001806
aa(lp337
F217.09
aF0.0001806
aF243.84
aF0.0001806
aF258.66
aF0.0001806
aa(lp338
F290.08
aF0.0001806
aF342.05
aF0.0001806
aF401.36
aF0.0001806
aa(lp339
F446.12
aF0.0001806
aF470.27
aF0.0001806
aF520.08
aF0.0001806
aa(lp340
F598.55
aF0.0001806
aF682.7
aF0.0001806
aF742.72
aF0.0001806
aa(lp341
F773.93
aF0.0001806
aF835.87
aF0.0001806
aF927.12
aF0.0001806
aa(lp342
F1016.9
aF0.0001806
aF1076.0
aF0.0001806
aF1105.1
aF0.0001806
aa(lp343
F1159.8
aF0.0001806
aF1232.5
aF0.0001806
aF1294.3
aF0.0001806
aa(lp344
F1329.3
aF0.0001806
aF1344.7
aF0.0001806
aF1369.8
aF0.0001806
aa(lp345
F1394.1
aF0.0001806
aF1403.3
aF0.0001806
aF1401.0
aF0.0001806
aa(lp346
F1397.2
aF0.0001806
aF1385.0
aF0.0001806
aF1356.4
aF0.0001806
aa(lp347
F1316.6
aF0.0001806
aF1284.2
aF0.0001806
aF1266.3
aF0.0001806
aa(lp348
F1228.8
aF0.0001806
aF1169.9
aF0.0001806
aF1108.1
aF0.0001806
aa(lp349
F1065.3
aF0.0001806
aF1043.4
aF0.0001806
aF1001.1
aF0.0001806
aa(lp350
F940.97
aF0.0001806
aF884.09
aF0.0001806
aF847.62
aF0.0001806
aa(lp351
F829.83
aF0.0001806
aF796.69
aF0.0001806
aF752.47
aF0.0001806
aa(lp352
F713.52
aF0.0001806
aF689.95
aF0.0001806
aF678.86
aF0.0001806
aa(lp353
F658.92
aF0.0001806
aF633.88
aF0.0001806
aF613.51
aF0.0001806
aa(lp354
F602.11
aF0.0001806
aF597.04
aF0.0001806
aF588.49
aF0.0001806
aa(lp355
F579.09
aF0.0001806
aF573.09
aF0.0001806
aF570.76
aF0.0001806
aa(lp356
F570.09
aF0.0001806
aF569.73
aF0.0001806
aF571.31
aF0.0001806
aa(lp357
F575.15
aF0.0001806
aF578.93
aF0.0001806
aF580.04
aF0.0001806
aa.