(lp0
(lp1
F5495.4
aF10.151
aF5743.1
aF10.125
aF6286.6
aF10.086
aa(lp2
F7498.8
aF10.041
aF9668.3
aF9.9998
aF12095.0
aF9.9655
aa(lp3
F13545.0
aF9.2795
aF14076.0
aF8.6561
aF14232.0
aF8.3548
aa(lp4
F14295.0
aF7.9415
aF14273.0
aF7.7775
aF14262.0
aF7.7257
aa(lp5
F14240.0
aF7.633
aF14147.0
aF7.3635
aF13944.0
aF7.0293
aa(lp6
F13774.0
aF6.7857
aF13717.0
aF6.7067
aF13684.0
aF6.6635
aa(lp7
F13640.0
aF6.6048
aF13538.0
aF6.489
aF13493.0
aF6.4397
aa(lp8
F13473.0
aF6.4191
aF13293.0
aF6.1947
aF13265.0
aF5.6468
aa(lp9
F13289.0
aF5.449
aF13296.0
aF5.4155
aF13304.0
aF5.3285
aa(lp10
F13363.0
aF5.047
aF13533.0
aF4.6673
aF13824.0
aF4.3224
aa(lp11
F14072.0
aF4.105
aF14163.0
aF4.0348
aF14225.0
aF3.9889
aa(lp12
F14254.0
aF3.9681
aF14270.0
aF3.9568
aF14288.0
aF3.9445
aa(lp13
F14320.0
aF3.9221
aF14404.0
aF3.8654
aF14613.0
aF3.7367
aa(lp14
F14799.0
aF3.6347
aF15082.0
aF3.4864
aF15301.0
aF3.3775
aa(lp15
F15619.0
aF3.229
aF15735.0
aF3.1735
aF15753.0
aF3.165
aa(lp16
F15834.0
aF3.1262
aF16034.0
aF3.0314
aF16119.0
aF2.9918
aa(lp17
F16155.0
aF2.9759
aF16200.0
aF2.9558
aF16286.0
aF2.9169
aa(lp18
F16330.0
aF2.8972
aF16363.0
aF2.882
aF16594.0
aF2.7761
aa(lp19
F16847.0
aF2.5236
aF16876.0
aF2.4339
aF16881.0
aF2.4216
aa(lp20
F16885.0
aF2.4105
aF16891.0
aF2.3924
aF16921.0
aF2.319
aa(lp21
F16968.0
aF2.1482
aF16993.0
aF2.0859
aF16999.0
aF2.0758
aa(lp22
F17018.0
aF2.0466
aF17148.0
aF1.9789
aF17224.0
aF1.9463
aa(lp23
F17281.0
aF1.9233
aF17534.0
aF1.8563
aF18223.0
aF1.7071
aa(lp24
F18506.0
aF1.6535
aF18547.0
aF1.646
aF18616.0
aF1.6337
aa(lp25
F18763.0
aF1.6079
aF18951.0
aF11.733
aF19115.0
aF11.249
aa(lp26
F18954.0
aF10.931
aF18700.0
aF10.443
aF19121.0
aF9.9813
aa(lp27
F19253.0
aF9.8431
aF19276.0
aF9.8197
aF19301.0
aF9.794
aa(lp28
F19347.0
aF9.7475
aF19592.0
aF9.505
aF20304.0
aF8.9211
aa(lp29
F20604.0
aF8.7038
aF20661.0
aF8.6636
aF20858.0
aF8.5256
aa(lp30
F21324.0
aF8.1996
aF21509.0
aF8.0707
aF21562.0
aF8.0341
aa(lp31
F21708.0
aF7.9346
aF22049.0
aF7.7053
aF22230.0
aF7.5859
aa(lp32
F22387.0
aF7.4848
aF22464.0
aF7.4361
aF22517.0
aF7.4031
aa(lp33
F22565.0
aF7.373
aF22643.0
aF7.324
aF22690.0
aF7.2943
aa(lp34
F22742.0
aF7.262
aF22783.0
aF7.2364
aF22814.0
aF7.2167
aa(lp35
F22840.0
aF7.2007
aF9361.1
aF7.0625
aF9682.3
aF6.7161
aa(lp36
F9799.6
aF6.5841
aF9824.3
aF6.5557
aF9873.3
aF6.499
aa(lp37
F9978.0
aF6.3744
aF9806.7
aF6.3197
aF9653.0
aF6.2927
aa(lp38
F9201.3
aF6.2145
aF8105.9
aF6.0324
aF6019.0
aF5.7127
aa(lp39
F6546.1
aF5.4403
aF6141.8
aF5.3255
aF6188.7
aF5.1801
aa(lp40
F6218.7
aF5.072
aF5641.4
aF5.04
aF4822.2
aF5.0298
aa(lp41
F3940.5
aF4.9736
aF3847.6
aF4.7872
aF3707.4
aF4.5702
aa(lp42
F3561.2
aF4.3432
aF3493.8
aF4.2291
aF3441.3
aF4.1364
aa(lp43
F3421.4
aF4.1002
aF3370.4
aF4.0923
aF3113.8
aF3.9836
aa(lp44
F2975.4
aF3.7115
aF2930.8
aF3.608
aF2144.3
aF3.5813
aa(lp45
F2117.1
aF3.5118
aF2066.5
aF3.3546
aF2059.2
aF3.2949
aa(lp46
F2058.7
aF3.283
aF2055.6
aF3.242
aF2052.4
aF3.1444
aa(lp47
F2052.9
aF3.1015
aF2053.7
aF3.0795
aF2097.0
aF2.8702
aa(lp48
F2277.0
aF2.3994
aF2365.1
aF2.2463
aF2358.2
aF2.2317
aa(lp49
F2364.3
aF2.2197
aF2373.5
aF2.2017
aF2401.9
aF2.1487
aa(lp50
F5297.2
aF2.028
aF4986.8
aF1.9837
aF4801.7
aF1.9774
aa(lp51
F4666.2
aF1.9729
aF4481.1
aF1.9666
aF4345.6
aF1.9621
aa(lp52
F4160.5
aF1.9559
aF3043.0
aF1.9191
aF2360.5
aF1.8285
aa(lp53
F2377.0
aF1.7947
aF2379.7
aF1.7892
aF2384.3
aF1.7801
aa(lp54
F2394.1
aF1.7611
aF2398.8
aF1.7522
aF2401.7
aF1.7468
aa(lp55
F2408.0
aF1.7352
aF2422.5
aF1.7089
aF2429.0
aF1.6975
aa(lp56
F2431.9
aF1.6924
aF2434.9
aF1.6872
aF2440.2
aF1.6783
aa(lp57
F2442.6
aF1.6741
aF2443.9
aF1.6716
aF2449.9
aF1.661
aa(lp58
F2465.9
aF1.6349
aF2489.4
aF1.5981
aF2539.0
aF1.5263
aa(lp59
F2548.2
aF1.4994
aF2523.1
aF1.495
aF2555.4
aF1.4594
aa(lp60
F2641.4
aF1.3715
aF2121.4
aF1.3403
aF614.16
aF1.3384
aa(lp61
F59.123
aF1.3081
aF51.951
aF1.2315
aF46.633
aF1.1638
aa(lp62
F39.989
aF1.0601
aF38.041
aF1.0241
aF37.903
aF1.0214
aa(lp63
F23.283
aF1.0099
aF22.853
aF0.99503
aF22.44
aF0.97942
aa(lp64
F22.072
aF0.96412
aF21.824
aF0.95381
aF21.468
aF0.9379
aa(lp65
F21.333
aF0.93128
aF21.286
aF0.92889
aF20.971
aF0.91139
aa(lp66
F20.259
aF0.85231
aF19.389
aF0.78236
aF19.027
aF0.73365
aa(lp67
F18.965
aF0.72006
aF14.903
aF0.71661
aF14.657
aF0.70377
aa(lp68
F13.975
aF0.66571
aF13.429
aF0.63025
aF13.29
aF0.61986
aa(lp69
F13.271
aF0.61844
aF13.113
aF0.60635
aF13.58
aF0.57611
aa(lp70
F13.821
aF0.56506
aF13.849
aF0.56379
aF14.074
aF0.55395
aa(lp71
F14.68
aF0.52932
aF14.068
aF0.52016
aF12.392
aF0.51917
aa(lp72
F4.7753
aF0.51146
aF5.2749
aF0.49237
aF5.4712
aF0.48523
aa(lp73
F5.5004
aF0.48419
aF5.5176
aF0.47053
aF5.0451
aF0.43653
aa(lp74
F4.8691
aF0.42423
aF3.5798
aF0.42248
aF3.5868
aF0.4192
aa(lp75
F3.5932
aF0.41627
aF3.5952
aF0.41541
aF3.6157
aF0.40675
aa(lp76
F3.6755
aF0.38501
aF3.7
aF0.37714
aF3.7025
aF0.37639
aa(lp77
F3.724
aF0.36996
aF3.7076
aF0.3538
aF3.7011
aF0.34761
aa(lp78
F3.3584
aF0.34625
aF3.3411
aF0.34096
aF3.2997
aF0.32829
aa(lp79
F3.2842
aF0.32357
aF3.2821
aF0.32295
aF3.2766
aF0.32127
aa(lp80
F3.2602
aF0.31635
aF3.2441
aF0.31153
aF3.2304
aF0.30746
aa(lp81
F3.1971
aF0.29766
aF3.1547
aF0.28546
aF3.1234
aF0.27654
aa(lp82
F3.1024
aF0.26984
aF3.0669
aF0.2583
aF3.0536
aF0.25407
aa(lp83
F3.0521
aF0.25362
aF3.0473
aF0.25212
aF1.2633
aF0.24853
aa(lp84
F1.2652
aF0.24707
aF1.2658
aF0.24663
aF1.2783
aF0.23773
aa(lp85
F1.2902
aF0.21579
aF1.2938
aF0.20814
aF1.2941
aF0.20743
aa(lp86
F1.2955
aF0.20465
aF1.3006
aF0.19552
aF1.3075
aF0.18436
aa(lp87
F1.3184
aF0.17636
aF1.3214
aF0.17425
aF1.3217
aF0.17411
aa(lp88
F1.3234
aF0.17294
aF1.3296
aF0.16883
aF1.3379
aF0.16365
aa(lp89
F1.3442
aF0.15981
aF1.3473
aF0.15798
aF1.3522
aF0.15516
aa(lp90
F1.357
aF0.15241
aF1.3586
aF0.15154
aF1.359
aF0.1513
aa(lp91
F1.3603
aF0.15061
aF1.3633
aF0.14897
aF1.3645
aF0.1483
aa(lp92
F1.3649
aF0.14807
aF1.3675
aF0.14672
aF1.3763
aF0.14209
aa(lp93
F1.3879
aF0.13633
aF1.3969
aF0.13212
aF1.3995
aF0.13092
aa(lp94
F1.4001
aF0.13062
aF1.4043
aF0.12877
aF1.4149
aF0.12416
aa(lp95
F1.4189
aF0.12246
aF1.4194
aF0.12228
aF1.4209
aF0.12165
aa(lp96
F0.90617
aF0.12014
aF0.90671
aF0.11956
aF0.90679
aF0.11948
aa(lp97
F0.90854
aF0.11764
aF0.91324
aF0.11287
aF0.91502
aF0.11113
aa(lp98
F0.91518
aF0.11097
aF0.91606
aF0.11012
aF0.91914
aF0.10721
aa(lp99
F0.92312
aF0.10356
aF0.92615
aF0.10087
aF0.92708
aF0.10012
aa(lp100
F0.92729
aF0.099981
aF0.92888
aF0.098966
aF0.933
aF0.096395
aa(lp101
F0.85476
aF0.095471
aF0.85478
aF0.095462
aF0.85485
aF0.095405
aa(lp102
F0.8559
aF0.09454
aF0.86152
aF0.092362
aF0.86481
aF0.091535
aa(lp103
F0.86531
aF0.09141
aF0.86925
aF0.090436
aF0.87951
aF0.08796
aa(lp104
F0.88346
aF0.087032
aF0.88396
aF0.086915
aF0.88662
aF0.086297
aa(lp105
F0.89271
aF0.084751
aF0.89176
aF0.084174
aF0.89163
aF0.084118
aa(lp106
F0.86798
aF0.083974
aF0.85831
aF0.083639
aF0.85785
aF0.083436
aa(lp107
F0.85734
aF0.083214
aF0.85706
aF0.083093
aF0.85681
aF0.082982
aa(lp108
F0.855
aF0.082198
aF0.84861
aF0.079479
aF0.8403
aF0.076102
aa(lp109
F0.8339
aF0.073635
aF0.83124
aF0.072653
aF0.82868
aF0.07173
aa(lp110
F0.78093
aF0.071211
aF0.78244
aF0.070493
aF0.78464
aF0.069458
aa(lp111
F0.78684
aF0.068442
aF0.78834
aF0.067759
aF0.78985
aF0.067078
aa(lp112
F0.79408
aF0.065212
aF0.79856
aF0.062876
aF0.80196
aF0.061157
aa(lp113
F0.80375
aF0.060344
aF0.80612
aF0.059361
aF0.80824
aF0.058498
aa(lp114
F0.81165
aF0.057139
aF0.81424
aF0.056133
aF0.8179
aF0.054745
aa(lp115
F0.81936
aF0.054201
aF0.81759
aF0.054072
aF0.81921
aF0.053537
aa(lp116
F0.82326
aF0.052229
aF0.82553
aF0.051513
aF0.82823
aF0.050674
aa(lp117
F0.83093
aF0.049851
aF0.83259
aF0.049353
aF0.83502
aF0.048647
aa(lp118
F0.83598
aF0.048371
aF0.83617
aF0.048316
aF0.83681
aF0.048133
aa(lp119
F0.83836
aF0.047694
aF0.83903
aF0.047504
aF0.83932
aF0.047423
aa(lp120
F0.84028
aF0.047153
aF0.84349
aF0.046264
aF0.84767
aF0.045137
aa(lp121
F0.85085
aF0.044296
aF0.85177
aF0.044058
aF0.85196
aF0.044008
aa(lp122
F0.85356
aF0.043595
aF0.85787
aF0.042539
aF0.8612
aF0.041871
aa(lp123
F0.86517
aF0.041093
aF0.8667
aF0.040797
aF0.86693
aF0.040752
aa(lp124
F0.86885
aF0.040385
aF0.87383
aF0.039448
aF0.8767
aF0.038918
aa(lp125
F0.87958
aF0.038395
aF0.88281
aF0.037815
aF0.88876
aF0.036775
aa(lp126
F0.89147
aF0.036311
aF0.89295
aF0.036061
aF0.89357
aF0.035956
aa(lp127
F0.8938
aF0.035918
aF0.89496
aF0.035724
aF0.89934
aF0.035012
aa(lp128
F0.90625
aF0.033938
aF0.91401
aF0.032776
aF0.92083
aF0.031788
aa(lp129
F0.92519
aF0.031173
aF0.9273
aF0.03088
aF0.93117
aF0.030353
aa(lp130
F0.93621
aF0.029682
aF0.94004
aF0.02918
aF0.94115
aF0.029037
aa(lp131
F0.94137
aF0.029008
aF0.94166
aF0.028971
aF0.94223
aF0.028898
aa(lp132
F0.94252
aF0.028861
aF0.94274
aF0.028832
aF0.94377
aF0.028701
aa(lp133
F0.94755
aF0.028224
aF0.95341
aF0.0275
aF0.95989
aF0.026711
aa(lp134
F0.96555
aF0.026035
aF0.96916
aF0.025613
aF0.97114
aF0.025385
aa(lp135
F0.97519
aF0.024924
aF0.98076
aF0.024339
aF0.98477
aF0.023902
aa(lp136
F0.98678
aF0.023688
aF0.98937
aF0.023419
aF0.99039
aF0.023314
aa(lp137
F0.99061
aF0.023292
aF0.99166
aF0.023184
aF0.99556
aF0.022789
aa(lp138
F1.0016
aF0.022191
aF1.0084
aF0.021539
aF1.0143
aF0.020981
aa(lp139
F1.0181
aF0.020633
aF1.0201
aF0.020448
aF1.0243
aF0.020081
aa(lp140
F1.0296
aF0.019614
aF1.0337
aF0.019266
aF1.0359
aF0.019083
aa(lp141
F1.0399
aF0.018747
aF1.0452
aF0.018319
aF1.0492
aF0.017999
aa(lp142
F1.0509
aF0.01786
aF1.0528
aF0.017711
aF1.0552
aF0.01753
aa(lp143
F1.0596
aF0.017187
aF1.0631
aF0.016923
aF1.0682
aF0.016546
aa(lp144
F1.0701
aF0.016405
aF1.0703
aF0.016391
aF1.0712
aF0.016324
aa(lp145
F1.0735
aF0.016156
aF1.0754
aF0.016026
aF1.079
aF0.015768
aa(lp146
F1.0837
aF0.015439
aF1.0873
aF0.015193
aF1.0888
aF0.015089
aa(lp147
F1.0904
aF0.014981
aF1.0911
aF0.014935
aF1.0914
aF0.014916
aa(lp148
F1.0917
aF0.014893
aF1.0924
aF0.014849
aF1.0927
aF0.014829
aa(lp149
F1.0929
aF0.014816
aF1.0939
aF0.014746
aF1.0966
aF0.014568
aa(lp150
F1.0979
aF0.014483
aF1.0987
aF0.014429
aF1.0991
aF0.014405
aa(lp151
F1.0993
aF0.014393
aF1.1008
aF0.014292
aF1.1049
aF0.014034
aa(lp152
F1.1064
aF0.013936
aF1.1066
aF0.013925
aF1.1071
aF0.013891
aa(lp153
F1.1084
aF0.013811
aF1.109
aF0.013778
aF1.1091
aF0.013767
aa(lp154
F1.111
aF0.013651
aF1.1159
aF0.013352
aF1.1178
aF0.013241
aa(lp155
F1.118
aF0.01323
aF1.1215
aF0.013019
aF1.1309
aF0.012474
aa(lp156
F1.1377
aF0.012093
aF1.1467
aF0.011596
aF1.15
aF0.011417
aa(lp157
F1.1502
aF0.011408
aF1.1511
aF0.011359
aF1.1544
aF0.011188
aa(lp158
F1.1585
aF0.01097
aF1.1617
aF0.010806
aF1.1637
aF0.010703
aa(lp159
F1.1681
aF0.010481
aF1.1737
aF0.0102
aF1.178
aF0.0099905
aa(lp160
F1.1802
aF0.0098823
aF1.1832
aF0.0097383
aF1.1849
aF0.0096591
aa(lp161
F1.1872
aF0.0095509
aF1.1907
aF0.0093855
aF1.1946
aF0.0092031
aa(lp162
F1.1981
aF0.0090453
aF1.2003
aF0.0089458
aF1.2009
aF0.0089188
aa(lp163
F1.201
aF0.0089123
aF1.2023
aF0.0088539
aF1.2057
aF0.0087031
aa(lp164
F1.2065
aF0.0086464
aF1.206
aF0.0086401
aF1.2066
aF0.0086034
aa(lp165
F1.2087
aF0.0085102
aF1.2095
aF0.0084742
aF1.2097
aF0.008468
aa(lp166
F1.2108
aF0.0084206
aF1.2146
aF0.0082538
aF1.2193
aF0.0080424
aa(lp167
F1.223
aF0.007885
aF1.2239
aF0.0078417
aF1.2237
aF0.0078361
aa(lp168
F1.2245
aF0.0078041
aF1.2271
aF0.0076929
aF1.2305
aF0.0075507
aa(lp169
F1.2331
aF0.007444
aF1.2338
aF0.007414
aF1.2339
aF0.0074089
aa(lp170
F1.2347
aF0.0073759
aF1.2375
aF0.007261
aF1.2411
aF0.0071144
aa(lp171
F1.2439
aF0.0070046
aF1.2453
aF0.0069469
aF1.2479
aF0.0068403
aa(lp172
F1.2513
aF0.0067044
aF1.2539
aF0.0066025
aF1.2553
aF0.006549
aa(lp173
F1.2578
aF0.0064502
aF1.261
aF0.006324
aF1.2635
aF0.0062294
aa(lp174
F1.2648
aF0.0061797
aF1.2672
aF0.0060878
aF1.2703
aF0.0059706
aa(lp175
F1.2727
aF0.0058826
aF1.2737
aF0.0058431
aF1.2753
aF0.0057822
aa(lp176
F1.2774
aF0.0057039
aF1.279
aF0.0056448
aF1.2794
aF0.0056279
aa(lp177
F1.2795
aF0.0056242
aF1.2803
aF0.005593
aF1.2825
aF0.0055123
aa(lp178
F1.2835
aF0.0054747
aF1.284
aF0.0054518
aF1.2846
aF0.0054288
aa(lp179
F1.2857
aF0.0053889
aF1.2871
aF0.005333
aF1.29
aF0.0052221
aa(lp180
F1.2915
aF0.005166
aF1.2927
aF0.0051221
aF1.2931
aF0.0051049
aa(lp181
F1.2932
aF0.0051017
aF1.2938
aF0.0050812
aF1.2957
aF0.0050096
aa(lp182
F1.2962
aF0.004918
aF1.2979
aF0.0048492
aF1.2984
aF0.00483
aa(lp183
F1.2984
aF0.004827
aF1.2989
aF0.0048079
aF1.3005
aF0.0047411
aa(lp184
F1.3026
aF0.0046558
aF1.3041
aF0.0045917
aF1.3049
aF0.004558
aa(lp185
F1.3063
aF0.0044955
aF1.3082
aF0.0044158
aF1.3095
aF0.0043558
aa(lp186
F1.3102
aF0.0043243
aF1.3115
aF0.0042659
aF1.3131
aF0.0041913
aa(lp187
F1.3143
aF0.0041352
aF1.3152
aF0.004091
aF1.3168
aF0.0040118
aa(lp188
F1.3177
aF0.0039674
aF1.3185
aF0.0039245
aF1.3189
aF0.003906
aa(lp189
F1.319
aF0.003898
aF1.3191
aF0.0038942
aF1.3192
aF0.0038919
aa(lp190
F1.3197
aF0.0038645
aF1.321
aF0.0037931
aF1.3214
aF0.0037669
aa(lp191
F1.3215
aF0.0037658
aF1.3217
aF0.0037503
aF1.3224
aF0.0037092
aa(lp192
F1.3227
aF0.0036936
aF1.3227
aF0.0036915
aF1.323
aF0.0036763
aa(lp193
F1.3236
aF0.0036373
aF1.3243
aF0.0035929
aF1.3255
aF0.0035118
aa(lp194
F1.3262
aF0.0034628
aF1.3269
aF0.0034094
aF1.3272
aF0.0033862
aa(lp195
F1.3273
aF0.0033758
aF1.3273
aF0.0033712
aF1.3274
aF0.0033693
aa(lp196
F1.3275
aF0.0033544
aF1.328
aF0.0033159
aF1.3281
aF0.0033019
aa(lp197
F1.3282
aF0.0033018
aF1.3282
aF0.0033017
aF1.3284
aF0.0032769
aa(lp198
F1.3291
aF0.0032104
aF1.3293
aF0.0031858
aF1.3293
aF0.0031841
aa(lp199
F1.3293
aF0.0031828
aF1.3293
aF0.003181
aF1.3293
aF0.0031797
aa(lp200
F1.3293
aF0.003178
aF1.3293
aF0.0031767
aF1.3294
aF0.0031749
aa(lp201
F1.3294
aF0.0031695
aF1.3295
aF0.0031564
aF1.3296
aF0.003151
aa(lp202
F1.3296
aF0.0031492
aF1.3296
aF0.0031378
aF1.3298
aF0.0031085
aa(lp203
F1.33
aF0.0030905
aF1.3301
aF0.0030702
aF1.3301
aF0.0030625
aa(lp204
F1.3301
aF0.0030617
aF1.3302
aF0.0030409
aF1.3304
aF0.0029859
aa(lp205
F1.3305
aF0.0029431
aF1.3305
aF0.0028591
aF1.3301
aF0.0027541
aa(lp206
F1.3295
aF0.002677
aF1.329
aF0.0026309
aF1.3277
aF0.0025364
aa(lp207
F1.3254
aF0.0024195
aF1.3231
aF0.0023346
aF1.322
aF0.002299
aa(lp208
F1.3202
aF0.0022487
aF1.3177
aF0.0021853
aF1.3156
aF0.0021382
aa(lp209
F1.315
aF0.0021255
aF1.3149
aF0.0021245
aF1.3145
aF0.0021149
aa(lp210
F1.3126
aF0.0020787
aF1.3094
aF0.0020239
aF1.3055
aF0.0019641
aa(lp211
F1.3018
aF0.0019132
aF1.2993
aF0.0018814
aF1.2976
aF0.00186
aa(lp212
F1.2928
aF0.001807
aF1.2849
aF0.0017282
aF1.2751
aF0.0016446
aa(lp213
F1.2656
aF0.001575
aF1.2591
aF0.0015323
aF1.2574
aF0.0015216
aa(lp214
F1.2573
aF0.0015209
aF1.255
aF0.0015067
aF1.2485
aF0.0014693
aa(lp215
F1.2442
aF0.0014458
aF1.237
aF0.0014086
aF1.227
aF0.001362
aa(lp216
F1.2191
aF0.0013276
aF1.2151
aF0.0013112
aF1.2081
aF0.0012835
aa(lp217
F1.1987
aF0.0012485
aF1.1912
aF0.0012226
aF1.1859
aF0.0012047
aa(lp218
F1.1766
aF0.0011752
aF1.1654
aF0.0011421
aF1.1436
aF0.0010834
aa(lp219
F1.1305
aF0.0010516
aF1.1173
aF0.0010214
aF1.1122
aF0.0010105
aa(lp220
F1.1121
aF0.0010101
aF1.1067
aF0.00099863
aF1.0918
aF0.00096859
aa(lp221
F1.0824
aF0.00095094
aF1.0673
aF0.00092366
aF1.043
aF0.00088325
aa(lp222
F1.0147
aF0.00084046
aF0.98867
aF0.00080491
aF0.97154
aF0.00078317
aa(lp223
F0.9623
aF0.00077194
aF0.94361
aF0.00075015
aF0.91873
aF0.00072298
aa(lp224
F0.89923
aF0.00070308
aF0.89388
aF0.00069782
aF0.89363
aF0.00069758
aa(lp225
F0.88676
aF0.00069094
aF0.85922
aF0.00066548
aF0.81534
aF0.00062838
aa(lp226
F0.76404
aF0.00058991
aF0.71767
aF0.0005586
aF0.68754
aF0.00053974
aa(lp227
F0.67983
aF0.00053513
aF0.67955
aF0.00053497
aF0.67727
aF0.00053363
aa(lp228
F0.66852
aF0.0005285
aF0.65487
aF0.00052066
aF0.63943
aF0.00051201
aa(lp229
F0.62575
aF0.00050452
aF0.61695
aF0.0004998
aF0.60788
aF0.000495
aa(lp230
F0.58907
aF0.00048526
aF0.57824
aF0.00047979
aF0.56339
aF0.00047248
aa(lp231
F0.54384
aF0.00046318
aF0.5289
aF0.00045624
aF0.51809
aF0.0004513
aa(lp232
F0.49252
aF0.00043989
aF0.45934
aF0.00042564
aF0.43381
aF0.00041518
aa(lp233
F0.41688
aF0.00040845
aF0.38952
aF0.0003978
aF0.37951
aF0.00039397
aa(lp234
F0.37922
aF0.00039387
aF0.3775
aF0.00039321
aF0.37308
aF0.00039154
aa(lp235
F0.37136
aF0.00039089
aF0.3711
aF0.00039079
aF0.37036
aF0.00039051
aa(lp236
F0.36863
aF0.00038985
aF0.36788
aF0.00038957
aF0.36777
aF0.00038953
aa(lp237
F0.36774
aF0.00038952
aF0.36522
aF0.00038857
aF0.35587
aF0.00038507
aa(lp238
F0.34376
aF0.00038058
aF0.33454
aF0.00037719
aF0.32719
aF0.00037454
aa(lp239
F0.31383
aF0.00036981
aF0.30306
aF0.00036602
aF0.28708
aF0.00036043
aa(lp240
F0.27846
aF0.00035743
aF0.26789
aF0.00035377
aF0.25428
aF0.00034908
aa(lp241
F0.244
aF0.00034555
aF0.23586
aF0.00034277
aF0.21435
aF0.0003355
aa(lp242
F0.18207
aF0.00032465
aF0.14786
aF0.00031307
aF0.12017
aF0.00030337
aa(lp243
F0.10383
aF0.0002974
aF0.099931
aF0.00029592
aF0.099762
aF0.00029586
aa(lp244
F0.096086
aF0.00029444
aF0.083242
aF0.00028929
aF0.068671
aF0.00028281
aa(lp245
F0.059692
aF0.000278
aF0.05012
aF0.00027549
aF0.050678
aF0.00027087
aa(lp246
F0.051412
aF0.00026505
aF0.051979
aF0.00026073
aF0.052286
aF0.00025845
aa(lp247
F0.052871
aF0.00025421
aF0.053643
aF0.00024885
aF0.054239
aF0.00024488
aa(lp248
F0.054401
aF0.00024382
aF0.054408
aF0.00024377
aF0.054604
aF0.00024251
aa(lp249
F0.055332
aF0.00023795
aF0.056291
aF0.00023222
aF0.057034
aF0.00022799
aa(lp250
F0.057323
aF0.00022639
aF0.057689
aF0.00022441
aF0.05826
aF0.00022138
aa(lp251
F0.058909
aF0.00021805
aF0.059487
aF0.00021518
aF0.05986
aF0.00021338
aa(lp252
F0.060118
aF0.00021215
aF0.060738
aF0.00020927
aF0.061554
aF0.00020561
aa(lp253
F0.062184
aF0.0002029
aF0.062691
aF0.00020087
aF0.063603
aF0.00019735
aa(lp254
F0.063941
aF0.00019608
aF0.063949
aF0.00019605
aF0.064233
aF0.000195
aa(lp255
F0.065002
aF0.00019221
aF0.065422
aF0.00019072
aF0.065976
aF0.00018881
aa(lp256
F0.066842
aF0.0001859
aF0.067826
aF0.00018272
aF0.068702
aF0.00018
aa(lp257
F0.069266
aF0.0001783
aF0.069596
aF0.00017732
aF0.070359
aF0.00017512
aa(lp258
F0.071554
aF0.00017179
aF0.072913
aF0.0001682
aF0.074125
aF0.00016516
aa(lp259
F0.074907
aF0.00016327
aF0.075105
aF0.0001628
aF0.075114
aF0.00016278
aa(lp260
F0.075275
aF0.0001624
aF0.07591
aF0.00016093
aF0.076905
aF0.00015869
aa(lp261
F0.078034
aF0.00015625
aF0.079042
aF0.00015417
aF0.079692
aF0.00015286
aa(lp262
F0.080015
aF0.00015222
aF0.080662
aF0.00015097
aF0.081674
aF0.00014906
aa(lp263
F0.082823
aF0.00014698
aF0.083845
aF0.0001452
aF0.084502
aF0.00014408
aa(lp264
F0.084669
aF0.0001438
aF0.084679
aF0.00014379
aF0.084889
aF0.00014344
aa(lp265
F0.085477
aF0.00014248
aF0.08679
aF0.0001404
aF0.088109
aF0.00013839
aa(lp266
F0.088891
aF0.00013725
aF0.089974
aF0.0001357
aF0.090707
aF0.00013469
aa(lp267
F0.091428
aF0.00013371
aF0.091913
aF0.00013307
aF0.092387
aF0.00013245
aa(lp268
F0.093026
aF0.00013164
aF0.093592
aF0.00013092
aF0.094417
aF0.0001299
aa(lp269
F0.095331
aF0.00012881
aF0.097003
aF0.00012687
aF0.097616
aF0.00012618
aa(lp270
F0.09762
aF0.00012617
aF0.097622
aF0.00012617
aF0.097667
aF0.00012612
aa(lp271
F0.097788
aF0.00012598
aF0.097836
aF0.00012592
aF0.097845
aF0.00012591
aa(lp272
F0.098191
aF0.00012551
aF0.099129
aF0.00012444
aF0.099483
aF0.00012406
aa(lp273
F0.099492
aF0.00012405
aF0.099844
aF0.00012367
aF0.10116
aF0.00012228
aa(lp274
F0.10288
aF0.00012055
aF0.10421
aF0.00011927
aF0.10493
aF0.0001186
aa(lp275
F0.10633
aF0.00011734
aF0.10817
aF0.00011577
aF0.10958
aF0.00011461
aa(lp276
F0.11088
aF0.00011359
aF0.11463
aF0.00011085
aF0.12053
aF0.00010702
aa(lp277
F0.12736
aF0.00010327
aF0.13359
aF0.00010038
aF0.13768
aF9.8712e-05
aa(lp278
F0.13978
aF9.7914e-05
aF0.14414
aF9.6379e-05
aF0.15109
aF9.422e-05
aa(lp279
F0.15917
aF9.2079e-05
aF0.16652
aF9.041e-05
aF0.1714
aF8.9436e-05
aa(lp280
F0.17485
aF8.88e-05
aF0.181
aF8.7759e-05
aF0.18458
aF8.7202e-05
aa(lp281
F0.18815
aF8.6679e-05
aF0.19008
aF8.6407e-05
aF0.19179
aF8.6174e-05
aa(lp282
F0.19326
aF8.5979e-05
aF0.19559
aF8.5679e-05
aF0.19644
aF8.5571e-05
aa(lp283
F0.1972
aF8.5477e-05
aF0.19929
aF8.5223e-05
aF0.20125
aF8.4991e-05
aa(lp284
F0.20578
aF8.4481e-05
aF0.21176
aF8.3859e-05
aF0.2164
aF8.3411e-05
aa(lp285
F0.21822
aF8.3243e-05
aF0.2204
aF8.3048e-05
aF0.22325
aF8.2801e-05
aa(lp286
F0.22545
aF8.2617e-05
aF0.22902
aF8.233e-05
aF0.24115
aF8.1449e-05
aa(lp287
F0.26064
aF8.0283e-05
aF0.28355
aF7.9211e-05
aF0.30462
aF7.8433e-05
aa(lp288
F0.31852
aF7.8002e-05
aF0.32325
aF7.7868e-05
aF0.32787
aF7.7743e-05
aa(lp289
F0.33393
aF7.7587e-05
aF0.33862
aF7.7472e-05
aF0.34003
aF7.7438e-05
aa(lp290
F0.34059
aF7.7425e-05
aF0.34132
aF7.7408e-05
aF0.34188
aF7.7395e-05
aa(lp291
F0.3429
aF7.7371e-05
aF0.34528
aF7.7317e-05
aF0.34875
aF7.7239e-05
aa(lp292
F0.3559
aF7.7087e-05
aF0.35853
aF7.7033e-05
aF0.35854
aF7.7033e-05
aa(lp293
F0.35855
aF7.7033e-05
aF0.35856
aF7.7033e-05
aF0.36025
aF7.6999e-05
aa(lp294
F0.36489
aF7.6908e-05
aF0.36733
aF7.6862e-05
aF0.36934
aF7.6824e-05
aa(lp295
F0.3713
aF7.6788e-05
aF0.37592
aF7.6706e-05
aF0.38198
aF7.6602e-05
aa(lp296
F0.38666
aF7.6526e-05
aF0.39037
aF7.6467e-05
aF0.3971
aF7.6364e-05
aa(lp297
F0.40198
aF7.6294e-05
aF0.41168
aF7.616e-05
aF0.427
aF7.5968e-05
aa(lp298
F0.44464
aF7.577e-05
aF0.46033
aF7.5612e-05
aF0.47052
aF7.5517e-05
aa(lp299
F0.47554
aF7.5473e-05
aF0.48552
aF7.5389e-05
aF0.50128
aF7.5267e-05
aa(lp300
F0.51937
aF7.5141e-05
aF0.53567
aF7.5038e-05
aF0.54626
aF7.4976e-05
aa(lp301
F0.55334
aF7.4937e-05
aF0.56553
aF7.4873e-05
aF0.57034
aF7.4849e-05
aa(lp302
F0.57119
aF7.4844e-05
aF0.57173
aF7.4842e-05
aF0.57234
aF7.4839e-05
aa(lp303
F0.57364
aF7.4832e-05
aF0.57661
aF7.4818e-05
aF0.58043
aF7.48e-05
aa(lp304
F0.58792
aF7.4765e-05
aF0.59096
aF7.4752e-05
aF0.59173
aF7.4748e-05
aa(lp305
F0.59228
aF7.4746e-05
aF0.59302
aF7.4743e-05
aF0.59463
aF7.4736e-05
aa(lp306
F0.59827
aF7.472e-05
aF0.60061
aF7.471e-05
aF0.60333
aF7.4698e-05
aa(lp307
F0.60433
aF7.4694e-05
aF0.60434
aF7.4694e-05
aF0.60436
aF7.4694e-05
aa(lp308
F0.60437
aF7.4694e-05
aF0.60636
aF7.4686e-05
aF0.61452
aF7.4653e-05
aa(lp309
F0.62783
aF7.4602e-05
aF0.64411
aF7.4545e-05
aF0.66058
aF7.4491e-05
aa(lp310
F0.67435
aF7.4448e-05
aF0.68294
aF7.4423e-05
aF0.69191
aF7.4398e-05
aa(lp311
F0.7198
aF7.4326e-05
aF0.76437
aF7.4228e-05
aF0.81632
aF7.4133e-05
aa(lp312
F0.86377
aF7.4061e-05
aF0.89494
aF7.402e-05
aF0.90412
aF7.4009e-05
aa(lp313
F0.90874
aF7.4004e-05
aF0.91336
aF7.3998e-05
aF0.92248
aF7.3988e-05
aa(lp314
F0.9363
aF7.3973e-05
aF0.95285
aF7.3955e-05
aF0.95895
aF7.3949e-05
aa(lp315
F0.959
aF7.3949e-05
aF0.96169
aF7.3946e-05
aF0.96902
aF7.3939e-05
aa(lp316
F0.97316
aF7.3935e-05
aF0.97712
aF7.3931e-05
aF0.98195
aF7.3927e-05
aa(lp317
F0.99594
aF7.3914e-05
aF1.0194
aF7.3894e-05
aF1.0493
aF7.387e-05
aa(lp318
F1.0818
aF7.3846e-05
aF1.1126
aF7.3826e-05
aF1.1374
aF7.381e-05
aa(lp319
F1.1524
aF7.3802e-05
aF1.1584
aF7.3798e-05
aF1.1648
aF7.3795e-05
aa(lp320
F1.1945
aF7.3779e-05
aF1.2706
aF7.3743e-05
aF1.3095
aF7.3728e-05
aa(lp321
F1.346
aF7.3714e-05
aF1.383
aF7.3701e-05
aF1.3938
aF7.3698e-05
aa(lp322
F1.3939
aF7.3698e-05
aF1.403
aF7.3695e-05
aF1.4279
aF7.3687e-05
aa(lp323
F1.4371
aF7.3685e-05
aF1.4371
aF7.3685e-05
aF1.5699
aF7.3651e-05
aa(lp324
F1.9619
aF7.3588e-05
aF2.2843
aF7.3559e-05
aF2.776
aF7.3533e-05
aa(lp325
F3.1816
aF7.352e-05
aF3.8032
aF7.3508e-05
aF4.3151
aF7.3501e-05
aa(lp326
F5.101
aF7.3495e-05
aF5.7116
aF7.3492e-05
aF6.5919
aF7.3489e-05
aa(lp327
F7.0026
aF7.3488e-05
aF7.2001
aF7.3487e-05
aF7.585
aF7.3487e-05
aa(lp328
F8.8763
aF7.3485e-05
aF10.972
aF7.3483e-05
aF13.325
aF7.3482e-05
aa(lp329
F15.089
aF7.3481e-05
aF16.079
aF7.3481e-05
aF18.216
aF7.3481e-05
aa(lp330
F21.667
aF7.3481e-05
aF25.549
aF7.348e-05
aF28.481
aF7.348e-05
aa(lp331
F30.075
aF7.348e-05
aF33.411
aF7.348e-05
aF38.87
aF7.348e-05
aa(lp332
F45.142
aF7.348e-05
aF49.984
aF7.348e-05
aF52.656
aF7.348e-05
aa(lp333
F58.339
aF7.348e-05
aF67.898
aF7.348e-05
aF79.244
aF7.348e-05
aa(lp334
F88.235
aF7.348e-05
aF93.271
aF7.348e-05
aF104.13
aF7.348e-05
aa(lp335
F122.75
aF7.348e-05
aF145.21
aF7.348e-05
aF163.15
aF7.348e-05
aa(lp336
F173.22
aF7.348e-05
aF194.92
aF7.348e-05
aF231.9
aF7.348e-05
aa(lp337
F275.89
aF7.348e-05
aF310.39
aF7.348e-05
aF329.5
aF7.348e-05
aa(lp338
F370.01
aF7.348e-05
aF437.01
aF7.348e-05
aF513.46
aF7.348e-05
aa(lp339
F571.13
aF7.348e-05
aF602.25
aF7.348e-05
aF666.41
aF7.348e-05
aa(lp340
F767.48
aF7.348e-05
aF875.83
aF7.348e-05
aF953.1
aF7.348e-05
aa(lp341
F993.3
aF7.348e-05
aF1073.0
aF7.348e-05
aF1190.6
aF7.348e-05
aa(lp342
F1306.2
aF7.348e-05
aF1382.4
aF7.348e-05
aF1420.0
aF7.348e-05
aa(lp343
F1490.5
aF7.348e-05
aF1584.3
aF7.348e-05
aF1664.3
aF7.348e-05
aa(lp344
F1709.7
aF7.348e-05
aF1729.7
aF7.348e-05
aF1762.4
aF7.348e-05
aa(lp345
F1794.2
aF7.348e-05
aF1806.4
aF7.348e-05
aF1803.7
aF7.348e-05
aa(lp346
F1799.0
aF7.348e-05
aF1783.5
aF7.348e-05
aF1746.8
aF7.348e-05
aa(lp347
F1695.6
aF7.348e-05
aF1653.6
aF7.348e-05
aF1630.3
aF7.348e-05
aa(lp348
F1581.6
aF7.348e-05
aF1504.8
aF7.348e-05
aF1423.9
aF7.348e-05
aa(lp349
F1367.6
aF7.348e-05
aF1338.9
aF7.348e-05
aF1283.1
aF7.348e-05
aa(lp350
F1203.4
aF7.348e-05
aF1127.7
aF7.348e-05
aF1078.9
aF7.348e-05
aa(lp351
F1055.0
aF7.348e-05
aF1010.4
aF7.348e-05
aF950.56
aF7.348e-05
aa(lp352
F897.4
aF7.348e-05
aF864.99
aF7.348e-05
aF849.66
aF7.348e-05
aa(lp353
F821.93
aF7.348e-05
aF786.71
aF7.348e-05
aF757.58
aF7.348e-05
aa(lp354
F740.98
aF7.348e-05
aF733.49
aF7.348e-05
aF720.64
aF7.348e-05
aa(lp355
F705.91
aF7.348e-05
aF695.67
aF7.348e-05
aF691.03
aF7.348e-05
aa(lp356
F689.34
aF7.348e-05
aF687.3
aF7.348e-05
aF687.1
aF7.348e-05
aa(lp357
F689.91
aF7.348e-05
aF693.37
aF7.348e-05
aF694.43
aF7.348e-05
aa.