(lp0
(lp1
F5019.9
aF9.7305
aF5246.1
aF9.7068
aF5747.9
aF9.6708
aa(lp2
F6883.0
aF9.6302
aF8929.8
aF9.592
aF11224.0
aF9.5607
aa(lp3
F12596.0
aF8.9025
aF13096.0
aF8.3041
aF13242.0
aF8.0149
aa(lp4
F13297.0
aF7.6183
aF13274.0
aF7.4608
aF13263.0
aF7.4111
aa(lp5
F13241.0
aF7.3221
aF13148.0
aF7.0634
aF12950.0
aF6.7427
aa(lp6
F12785.0
aF6.5089
aF12729.0
aF6.433
aF12697.0
aF6.3916
aa(lp7
F12654.0
aF6.3352
aF12555.0
aF6.2241
aF12511.0
aF6.1768
aa(lp8
F12492.0
aF6.157
aF12316.0
aF5.9416
aF12260.0
aF5.4158
aa(lp9
F12271.0
aF5.226
aF12276.0
aF5.1939
aF12279.0
aF5.1103
aa(lp10
F12319.0
aF4.8402
aF12458.0
aF4.4758
aF12711.0
aF4.1449
aa(lp11
F12931.0
aF3.9363
aF13012.0
aF3.8689
aF13068.0
aF3.8248
aa(lp12
F13094.0
aF3.8049
aF13108.0
aF3.7941
aF13124.0
aF3.7822
aa(lp13
F13153.0
aF3.7607
aF13229.0
aF3.7064
aF13416.0
aF3.5829
aa(lp14
F13584.0
aF3.485
aF13840.0
aF3.3427
aF14038.0
aF3.2383
aa(lp15
F14326.0
aF3.0958
aF14430.0
aF3.0425
aF14446.0
aF3.0343
aa(lp16
F14520.0
aF2.9972
aF14700.0
aF2.9062
aF14777.0
aF2.8682
aa(lp17
F14809.0
aF2.853
aF14849.0
aF2.8336
aF14927.0
aF2.7963
aa(lp18
F14966.0
aF2.7775
aF14997.0
aF2.7629
aF15204.0
aF2.6613
aa(lp19
F15422.0
aF2.419
aF15444.0
aF2.333
aF15447.0
aF2.3212
aa(lp20
F15450.0
aF2.3105
aF15455.0
aF2.2932
aF15478.0
aF2.2228
aa(lp21
F15509.0
aF2.0589
aF15528.0
aF1.9992
aF15532.0
aF1.9895
aa(lp22
F15548.0
aF1.9615
aF15664.0
aF1.8966
aF15732.0
aF1.8653
aa(lp23
F15783.0
aF1.8433
aF16013.0
aF1.779
aF16642.0
aF1.6359
aa(lp24
F16900.0
aF1.5845
aF16938.0
aF1.5773
aF17001.0
aF1.5655
aa(lp25
F17136.0
aF1.5408
aF17308.0
aF10.675
aF17457.0
aF10.235
aa(lp26
F17305.0
aF9.9462
aF17068.0
aF9.5021
aF17456.0
aF9.0824
aa(lp27
F17578.0
aF8.9568
aF17599.0
aF8.9354
aF17622.0
aF8.9121
aa(lp28
F17664.0
aF8.8698
aF17890.0
aF8.6493
aF18547.0
aF8.1183
aa(lp29
F18825.0
aF7.9207
aF18878.0
aF7.8841
aF19060.0
aF7.7586
aa(lp30
F19491.0
aF7.4621
aF19662.0
aF7.3449
aF19711.0
aF7.3116
aa(lp31
F19845.0
aF7.2212
aF20161.0
aF7.0126
aF20328.0
aF6.9041
aa(lp32
F20473.0
aF6.8121
aF20544.0
aF6.7678
aF20592.0
aF6.7377
aa(lp33
F20636.0
aF6.7104
aF20709.0
aF6.6658
aF20752.0
aF6.6388
aa(lp34
F20800.0
aF6.6095
aF20838.0
aF6.5861
aF20867.0
aF6.5682
aa(lp35
F20890.0
aF6.5537
aF8663.3
aF6.428
aF8962.4
aF6.1129
aa(lp36
F9071.4
aF5.9929
aF9094.4
aF5.9671
aF9139.8
aF5.9155
aa(lp37
F9236.9
aF5.8022
aF9080.6
aF5.7524
aF8940.2
aF5.7278
aa(lp38
F8527.3
aF5.6567
aF7525.5
aF5.4911
aF5614.7
aF5.2003
aa(lp39
F6095.0
aF4.9525
aF5723.6
aF4.848
aF5764.6
aF4.7157
aa(lp40
F5790.3
aF4.6174
aF5260.6
aF4.5883
aF4509.6
aF4.579
aa(lp41
F3700.5
aF4.5279
aF3610.6
aF4.3583
aF3475.5
aF4.1609
aa(lp42
F3334.8
aF3.9544
aF3269.9
aF3.8506
aF3219.3
aF3.7662
aa(lp43
F3200.1
aF3.7333
aF3153.2
aF3.7261
aF2915.4
aF3.6272
aa(lp44
F2781.4
aF3.3796
aF2738.1
aF3.2854
aF2012.4
aF3.2612
aa(lp45
F1985.9
aF3.1979
aF1936.3
aF3.0548
aF1928.7
aF3.0005
aa(lp46
F1928.1
aF2.9897
aF1924.6
aF2.9524
aF1920.3
aF2.8636
aa(lp47
F1920.2
aF2.8246
aF1920.6
aF2.8045
aF1958.5
aF2.6141
aa(lp48
F2121.0
aF2.1855
aF2201.5
aF2.0462
aF2195.0
aF2.0329
aa(lp49
F2200.5
aF2.0219
aF2208.9
aF2.0055
aF2234.7
aF1.9573
aa(lp50
F4917.6
aF1.8475
aF4629.4
aF1.8071
aF4457.7
aF1.8014
aa(lp51
F4332.0
aF1.7972
aF4160.4
aF1.7916
aF4034.7
aF1.7874
aa(lp52
F3863.0
aF1.7818
aF2826.7
aF1.7483
aF2193.3
aF1.6658
aa(lp53
F2208.2
aF1.635
aF2210.7
aF1.63
aF2214.9
aF1.6218
aa(lp54
F2223.9
aF1.6044
aF2228.2
aF1.5964
aF2230.8
aF1.5915
aa(lp55
F2236.5
aF1.5808
aF2249.8
aF1.5569
aF2255.7
aF1.5466
aa(lp56
F2258.4
aF1.5419
aF2261.2
aF1.5372
aF2265.9
aF1.5291
aa(lp57
F2268.2
aF1.5253
aF2269.4
aF1.523
aF2274.8
aF1.5133
aa(lp58
F2289.5
aF1.4896
aF2311.1
aF1.4561
aF2356.5
aF1.3906
aa(lp59
F2364.7
aF1.3661
aF2341.0
aF1.3621
aF2370.7
aF1.3297
aa(lp60
F2450.2
aF1.2497
aF1968.1
aF1.2213
aF570.91
aF1.2195
aa(lp61
F56.298
aF1.192
aF49.427
aF1.1223
aF44.333
aF1.0605
aa(lp62
F37.971
aF0.96609
aF36.107
aF0.93332
aF35.974
aF0.93085
aa(lp63
F22.251
aF0.92044
aF21.834
aF0.90686
aF21.433
aF0.89265
aa(lp64
F21.075
aF0.87871
aF20.834
aF0.86932
aF20.487
aF0.85483
aa(lp65
F20.355
aF0.8488
aF20.309
aF0.84662
aF20.001
aF0.83068
aa(lp66
F19.299
aF0.77686
aF18.45
aF0.71315
aF18.093
aF0.66877
aa(lp67
F18.03
aF0.65639
aF14.203
aF0.65325
aF13.968
aF0.64154
aa(lp68
F13.316
aF0.60688
aF12.796
aF0.57456
aF12.663
aF0.5651
aa(lp69
F12.646
aF0.5638
aF12.496
aF0.55278
aF12.935
aF0.52523
aa(lp70
F13.162
aF0.51517
aF13.188
aF0.51401
aF13.401
aF0.50504
aa(lp71
F13.973
aF0.48259
aF13.394
aF0.47425
aF11.808
aF0.47335
aa(lp72
F4.6059
aF0.46632
aF5.0787
aF0.44893
aF5.2645
aF0.44242
aa(lp73
F5.292
aF0.44147
aF5.3083
aF0.42902
aF4.8611
aF0.39804
aa(lp74
F4.6947
aF0.38683
aF3.4722
aF0.38523
aF3.4789
aF0.38224
aa(lp75
F3.485
aF0.37957
aF3.4869
aF0.37879
aF3.5065
aF0.3709
aa(lp76
F3.5638
aF0.35108
aF3.5873
aF0.34391
aF3.5896
aF0.34322
aa(lp77
F3.6103
aF0.33737
aF3.5941
aF0.32264
aF3.5877
aF0.317
aa(lp78
F3.262
aF0.31576
aF3.2454
aF0.31093
aF3.2057
aF0.29938
aa(lp79
F3.1908
aF0.29508
aF3.1888
aF0.29452
aF3.1835
aF0.29299
aa(lp80
F3.1679
aF0.2885
aF3.1524
aF0.28411
aF3.1393
aF0.2804
aa(lp81
F3.1073
aF0.27146
aF3.0668
aF0.26034
aF3.0367
aF0.25221
aa(lp82
F3.0166
aF0.2461
aF2.9826
aF0.23559
aF2.9698
aF0.23173
aa(lp83
F2.9684
aF0.23131
aF2.9639
aF0.22995
aF1.2414
aF0.22667
aa(lp84
F1.2433
aF0.22534
aF1.2439
aF0.22494
aF1.2563
aF0.21683
aa(lp85
F1.2686
aF0.19682
aF1.2724
aF0.18985
aF1.2727
aF0.18921
aa(lp86
F1.2742
aF0.18667
aF1.2795
aF0.17834
aF1.2867
aF0.16817
aa(lp87
F1.2976
aF0.16087
aF1.3007
aF0.15895
aF1.3009
aF0.15882
aa(lp88
F1.3027
aF0.15775
aF1.309
aF0.154
aF1.3172
aF0.14928
aa(lp89
F1.3235
aF0.14579
aF1.3267
aF0.14411
aF1.3315
aF0.14155
aa(lp90
F1.3364
aF0.13904
aF1.338
aF0.13824
aF1.3384
aF0.13802
aa(lp91
F1.3397
aF0.13739
aF1.3426
aF0.1359
aF1.3439
aF0.13528
aa(lp92
F1.3443
aF0.13507
aF1.3469
aF0.13384
aF1.3558
aF0.12963
aa(lp93
F1.3674
aF0.12437
aF1.3763
aF0.12053
aF1.379
aF0.11943
aa(lp94
F1.3796
aF0.11916
aF1.3838
aF0.11748
aF1.3944
aF0.11327
aa(lp95
F1.3985
aF0.11172
aF1.3989
aF0.11156
aF1.4004
aF0.11099
aa(lp96
F0.89999
aF0.10961
aF0.90056
aF0.10908
aF0.90065
aF0.109
aa(lp97
F0.9025
aF0.10732
aF0.90748
aF0.10297
aF0.90937
aF0.10139
aa(lp98
F0.90954
aF0.10124
aF0.91048
aF0.10047
aF0.91373
aF0.097814
aa(lp99
F0.91796
aF0.094487
aF0.92117
aF0.092034
aF0.92215
aF0.091347
aa(lp100
F0.92237
aF0.091219
aF0.924
aF0.090294
aF0.92822
aF0.087949
aa(lp101
F0.85206
aF0.087107
aF0.85207
aF0.087098
aF0.85214
aF0.087046
aa(lp102
F0.85325
aF0.086257
aF0.85889
aF0.08427
aF0.86215
aF0.083516
aa(lp103
F0.86265
aF0.083402
aF0.86655
aF0.082513
aF0.87673
aF0.080255
aa(lp104
F0.88064
aF0.079409
aF0.88114
aF0.079302
aF0.88377
aF0.078739
aa(lp105
F0.88983
aF0.077328
aF0.88895
aF0.076801
aF0.88883
aF0.07675
aa(lp106
F0.86605
aF0.076619
aF0.85674
aF0.076314
aF0.8563
aF0.076128
aa(lp107
F0.85583
aF0.075926
aF0.85557
aF0.075816
aF0.85533
aF0.075715
aa(lp108
F0.85362
aF0.074999
aF0.84759
aF0.07252
aF0.83976
aF0.069438
aa(lp109
F0.83372
aF0.067189
aF0.83121
aF0.066293
aF0.82879
aF0.06545
aa(lp110
F0.78212
aF0.064977
aF0.78364
aF0.064322
aF0.78586
aF0.063378
aa(lp111
F0.78808
aF0.062451
aF0.78959
aF0.061828
aF0.79112
aF0.061206
aa(lp112
F0.79539
aF0.059505
aF0.79992
aF0.057374
aF0.80335
aF0.055805
aa(lp113
F0.80516
aF0.055064
aF0.80756
aF0.054167
aF0.80969
aF0.05338
aa(lp114
F0.81313
aF0.05214
aF0.81575
aF0.051222
aF0.81943
aF0.049955
aa(lp115
F0.82091
aF0.049459
aF0.81921
aF0.049342
aF0.82085
aF0.048853
aa(lp116
F0.82491
aF0.047661
aF0.82719
aF0.047007
aF0.82991
aF0.046241
aa(lp117
F0.83262
aF0.045491
aF0.83429
aF0.045037
aF0.83673
aF0.044392
aa(lp118
F0.83769
aF0.044141
aF0.83789
aF0.04409
aF0.83853
aF0.043924
aa(lp119
F0.84008
aF0.043523
aF0.84075
aF0.04335
aF0.84104
aF0.043275
aa(lp120
F0.84201
aF0.043029
aF0.84524
aF0.042218
aF0.84943
aF0.04119
aa(lp121
F0.85263
aF0.040423
aF0.85355
aF0.040205
aF0.85374
aF0.04016
aa(lp122
F0.85535
aF0.039783
aF0.85968
aF0.03882
aF0.86303
aF0.038211
aa(lp123
F0.867
aF0.037501
aF0.86854
aF0.03723
aF0.86877
aF0.037189
aa(lp124
F0.87069
aF0.036855
aF0.87569
aF0.035999
aF0.87857
aF0.035516
aa(lp125
F0.88146
aF0.035038
aF0.88471
aF0.03451
aF0.89067
aF0.033561
aa(lp126
F0.89339
aF0.033138
aF0.89487
aF0.032909
aF0.8955
aF0.032813
aa(lp127
F0.89573
aF0.032778
aF0.89689
aF0.032601
aF0.90129
aF0.031952
aa(lp128
F0.90822
aF0.030972
aF0.916
aF0.029911
aF0.92284
aF0.02901
aa(lp129
F0.92721
aF0.028449
aF0.92933
aF0.028182
aF0.93322
aF0.027701
aa(lp130
F0.93826
aF0.027088
aF0.94211
aF0.02663
aF0.94322
aF0.0265
aa(lp131
F0.94345
aF0.026474
aF0.94374
aF0.02644
aF0.9443
aF0.026373
aa(lp132
F0.94459
aF0.02634
aF0.94482
aF0.026313
aF0.94585
aF0.026194
aa(lp133
F0.94964
aF0.025758
aF0.95552
aF0.025098
aF0.96202
aF0.024377
aa(lp134
F0.9677
aF0.023761
aF0.97132
aF0.023376
aF0.97331
aF0.023167
aa(lp135
F0.97737
aF0.022747
aF0.98299
aF0.022213
aF0.98701
aF0.021814
aa(lp136
F0.98903
aF0.021619
aF0.99162
aF0.021374
aF0.99264
aF0.021278
aa(lp137
F0.99286
aF0.021257
aF0.99391
aF0.021159
aF0.99782
aF0.020799
aa(lp138
F1.0039
aF0.020253
aF1.0107
aF0.019658
aF1.0166
aF0.019149
aa(lp139
F1.0204
aF0.018831
aF1.0225
aF0.018663
aF1.0266
aF0.018327
aa(lp140
F1.032
aF0.017902
aF1.0361
aF0.017584
aF1.0383
aF0.017417
aa(lp141
F1.0423
aF0.01711
aF1.0476
aF0.016719
aF1.0516
aF0.016427
aa(lp142
F1.0533
aF0.016301
aF1.0552
aF0.016165
aF1.0576
aF0.015999
aa(lp143
F1.062
aF0.015687
aF1.0655
aF0.015446
aF1.0706
aF0.015101
aa(lp144
F1.0725
aF0.014973
aF1.0727
aF0.01496
aF1.0737
aF0.014899
aa(lp145
F1.076
aF0.014746
aF1.0778
aF0.014627
aF1.0814
aF0.014391
aa(lp146
F1.0862
aF0.014091
aF1.0898
aF0.013867
aF1.0913
aF0.013772
aa(lp147
F1.0929
aF0.013673
aF1.0936
aF0.013631
aF1.0939
aF0.013614
aa(lp148
F1.0942
aF0.013593
aF1.0949
aF0.013553
aF1.0952
aF0.013534
aa(lp149
F1.0953
aF0.013523
aF1.0964
aF0.013459
aF1.0991
aF0.013296
aa(lp150
F1.1004
aF0.013219
aF1.1012
aF0.01317
aF1.1016
aF0.013148
aa(lp151
F1.1018
aF0.013137
aF1.1033
aF0.013045
aF1.1074
aF0.012809
aa(lp152
F1.1089
aF0.01272
aF1.1091
aF0.012709
aF1.1097
aF0.012679
aa(lp153
F1.1109
aF0.012606
aF1.1115
aF0.012575
aF1.1117
aF0.012565
aa(lp154
F1.1136
aF0.012459
aF1.1185
aF0.012187
aF1.1204
aF0.012085
aa(lp155
F1.1205
aF0.012075
aF1.1241
aF0.011883
aF1.1335
aF0.011385
aa(lp156
F1.1403
aF0.011037
aF1.1493
aF0.010584
aF1.1527
aF0.010421
aa(lp157
F1.1528
aF0.010413
aF1.1538
aF0.010368
aF1.157
aF0.010212
aa(lp158
F1.1612
aF0.010013
aF1.1644
aF0.0098633
aF1.1664
aF0.009769
aa(lp159
F1.1708
aF0.0095662
aF1.1764
aF0.0093095
aF1.1807
aF0.0091186
aa(lp160
F1.1829
aF0.0090199
aF1.1859
aF0.0088884
aF1.1876
aF0.0088161
aa(lp161
F1.1899
aF0.0087174
aF1.1934
aF0.0085665
aF1.1974
aF0.0083999
aa(lp162
F1.2008
aF0.0082559
aF1.203
aF0.0081651
aF1.2036
aF0.0081405
aa(lp163
F1.2038
aF0.0081345
aF1.2051
aF0.0080812
aF1.2084
aF0.0079436
aa(lp164
F1.2093
aF0.0078919
aF1.2087
aF0.0078861
aF1.2094
aF0.0078526
aa(lp165
F1.2115
aF0.0077675
aF1.2124
aF0.0077347
aF1.2125
aF0.0077291
aa(lp166
F1.2136
aF0.0076858
aF1.2174
aF0.0075335
aF1.2221
aF0.0073406
aa(lp167
F1.2258
aF0.0071969
aF1.2267
aF0.0071574
aF1.2266
aF0.0071523
aa(lp168
F1.2273
aF0.0071231
aF1.23
aF0.0070215
aF1.2334
aF0.0068918
aa(lp169
F1.236
aF0.0067944
aF1.2367
aF0.006767
aF1.2368
aF0.0067623
aa(lp170
F1.2376
aF0.0067323
aF1.2404
aF0.0066273
aF1.244
aF0.0064935
aa(lp171
F1.2468
aF0.0063933
aF1.2482
aF0.0063407
aF1.2509
aF0.0062434
aa(lp172
F1.2543
aF0.0061193
aF1.2568
aF0.0060264
aF1.2582
aF0.0059775
aa(lp173
F1.2607
aF0.0058873
aF1.264
aF0.0057721
aF1.2665
aF0.0056858
aa(lp174
F1.2678
aF0.0056404
aF1.2702
aF0.0055566
aF1.2733
aF0.0054495
aa(lp175
F1.2756
aF0.0053692
aF1.2767
aF0.0053332
aF1.2783
aF0.0052776
aa(lp176
F1.2804
aF0.0052061
aF1.2819
aF0.0051522
aF1.2824
aF0.0051367
aa(lp177
F1.2825
aF0.0051334
aF1.2833
aF0.0051049
aF1.2855
aF0.0050312
aa(lp178
F1.2864
aF0.0049969
aF1.287
aF0.0049761
aF1.2876
aF0.0049551
aa(lp179
F1.2886
aF0.0049186
aF1.2901
aF0.0048676
aF1.293
aF0.0047664
aa(lp180
F1.2945
aF0.0047152
aF1.2957
aF0.0046751
aF1.2961
aF0.0046594
aa(lp181
F1.2962
aF0.0046565
aF1.2968
aF0.0046378
aF1.2987
aF0.0045724
aa(lp182
F1.2992
aF0.0044888
aF1.3009
aF0.004426
aF1.3014
aF0.0044085
aa(lp183
F1.3015
aF0.0044058
aF1.3019
aF0.0043883
aF1.3036
aF0.0043274
aa(lp184
F1.3056
aF0.0042494
aF1.3071
aF0.0041909
aF1.3079
aF0.0041601
aa(lp185
F1.3094
aF0.0041032
aF1.3112
aF0.0040304
aF1.3126
aF0.0039756
aa(lp186
F1.3133
aF0.0039469
aF1.3146
aF0.0038936
aF1.3162
aF0.0038255
aa(lp187
F1.3174
aF0.0037743
aF1.3183
aF0.0037339
aF1.3199
aF0.0036616
aa(lp188
F1.3208
aF0.0036211
aF1.3216
aF0.0035819
aF1.322
aF0.003565
aa(lp189
F1.3221
aF0.0035577
aF1.3222
aF0.0035543
aF1.3222
aF0.0035522
aa(lp190
F1.3228
aF0.0035272
aF1.3241
aF0.003462
aF1.3245
aF0.0034381
aa(lp191
F1.3245
aF0.0034371
aF1.3248
aF0.0034229
aF1.3255
aF0.0033855
aa(lp192
F1.3258
aF0.0033712
aF1.3258
aF0.0033692
aF1.3261
aF0.0033554
aa(lp193
F1.3267
aF0.0033198
aF1.3274
aF0.0032793
aF1.3286
aF0.0032052
aa(lp194
F1.3293
aF0.0031605
aF1.33
aF0.0031117
aF1.3303
aF0.0030906
aa(lp195
F1.3304
aF0.003081
aF1.3305
aF0.0030769
aF1.3305
aF0.0030752
aa(lp196
F1.3307
aF0.0030616
aF1.3311
aF0.0030264
aF1.3313
aF0.0030136
aa(lp197
F1.3313
aF0.0030135
aF1.3313
aF0.0030135
aF1.3315
aF0.0029908
aa(lp198
F1.3322
aF0.0029301
aF1.3324
aF0.0029077
aF1.3324
aF0.0029061
aa(lp199
F1.3324
aF0.0029049
aF1.3324
aF0.0029033
aF1.3324
aF0.0029021
aa(lp200
F1.3325
aF0.0029005
aF1.3325
aF0.0028993
aF1.3325
aF0.0028977
aa(lp201
F1.3325
aF0.0028927
aF1.3326
aF0.0028808
aF1.3327
aF0.0028758
aa(lp202
F1.3327
aF0.0028742
aF1.3328
aF0.0028638
aF1.333
aF0.0028371
aa(lp203
F1.3331
aF0.0028206
aF1.3332
aF0.0028021
aF1.3332
aF0.0027951
aa(lp204
F1.3332
aF0.0027943
aF1.3333
aF0.0027754
aF1.3335
aF0.0027252
aa(lp205
F1.3336
aF0.0026861
aF1.3337
aF0.0026095
aF1.3332
aF0.0025136
aa(lp206
F1.3326
aF0.0024432
aF1.3321
aF0.0024011
aF1.3308
aF0.0023148
aa(lp207
F1.3285
aF0.0022082
aF1.3262
aF0.0021307
aF1.3251
aF0.0020982
aa(lp208
F1.3233
aF0.0020523
aF1.3208
aF0.0019943
aF1.3187
aF0.0019514
aa(lp209
F1.3181
aF0.0019398
aF1.318
aF0.0019388
aF1.3175
aF0.0019301
aa(lp210
F1.3157
aF0.0018971
aF1.3125
aF0.001847
aF1.3086
aF0.0017925
aa(lp211
F1.3049
aF0.001746
aF1.3024
aF0.0017169
aF1.3006
aF0.0016974
aa(lp212
F1.2959
aF0.001649
aF1.2879
aF0.0015771
aF1.2781
aF0.0015008
aa(lp213
F1.2685
aF0.0014372
aF1.2621
aF0.0013982
aF1.2604
aF0.0013885
aa(lp214
F1.2602
aF0.0013879
aF1.2579
aF0.0013749
aF1.2514
aF0.0013407
aa(lp215
F1.2471
aF0.0013193
aF1.2399
aF0.0012853
aF1.2299
aF0.0012428
aa(lp216
F1.222
aF0.0012114
aF1.218
aF0.0011964
aF1.2109
aF0.0011711
aa(lp217
F1.2015
aF0.0011392
aF1.194
aF0.0011155
aF1.1887
aF0.0010992
aa(lp218
F1.1793
aF0.0010723
aF1.1682
aF0.0010421
aF1.1463
aF0.0009885
aa(lp219
F1.1332
aF0.00095945
aF1.1199
aF0.00093186
aF1.1149
aF0.0009219
aa(lp220
F1.1147
aF0.00092154
aF1.1093
aF0.00091109
aF1.0944
aF0.00088366
aa(lp221
F1.085
aF0.00086755
aF1.0698
aF0.00084265
aF1.0456
aF0.00080576
aa(lp222
F1.0172
aF0.00076669
aF0.9911
aF0.00073424
aF0.97394
aF0.0007144
aa(lp223
F0.96469
aF0.00070414
aF0.94596
aF0.00068424
aF0.92104
aF0.00065944
aa(lp224
F0.9015
aF0.00064127
aF0.89614
aF0.00063647
aF0.8959
aF0.00063626
aa(lp225
F0.88902
aF0.0006302
aF0.86142
aF0.00060695
aF0.81746
aF0.00057308
aa(lp226
F0.76608
aF0.00053796
aF0.71964
aF0.00050938
aF0.68946
aF0.00049216
aa(lp227
F0.68173
aF0.00048796
aF0.68146
aF0.00048781
aF0.67918
aF0.00048658
aa(lp228
F0.67041
aF0.0004819
aF0.65673
aF0.00047474
aF0.64127
aF0.00046684
aa(lp229
F0.62757
aF0.00046001
aF0.61876
aF0.0004557
aF0.60968
aF0.00045131
aa(lp230
F0.59083
aF0.00044243
aF0.57999
aF0.00043743
aF0.56512
aF0.00043076
aa(lp231
F0.54554
aF0.00042227
aF0.53058
aF0.00041593
aF0.51975
aF0.00041142
aa(lp232
F0.49414
aF0.000401
aF0.46091
aF0.00038799
aF0.43535
aF0.00037845
aa(lp233
F0.4184
aF0.00037231
aF0.391
aF0.00036258
aF0.38097
aF0.00035908
aa(lp234
F0.38069
aF0.00035899
aF0.37896
aF0.00035839
aF0.37454
aF0.00035686
aa(lp235
F0.37282
aF0.00035627
aF0.37255
aF0.00035618
aF0.37182
aF0.00035592
aa(lp236
F0.37008
aF0.00035533
aF0.36933
aF0.00035507
aF0.36922
aF0.00035503
aa(lp237
F0.36919
aF0.00035502
aF0.36666
aF0.00035415
aF0.35731
aF0.00035096
aa(lp238
F0.34518
aF0.00034686
aF0.33595
aF0.00034377
aF0.32859
aF0.00034135
aa(lp239
F0.31521
aF0.00033703
aF0.30443
aF0.00033357
aF0.28843
aF0.00032846
aa(lp240
F0.2798
aF0.00032572
aF0.26922
aF0.00032238
aF0.25559
aF0.0003181
aa(lp241
F0.2453
aF0.00031488
aF0.23715
aF0.00031234
aF0.21561
aF0.0003057
aa(lp242
F0.1833
aF0.0002958
aF0.14905
aF0.00028523
aF0.12134
aF0.00027637
aa(lp243
F0.10498
aF0.00027093
aF0.10108
aF0.00026957
aF0.10091
aF0.00026952
aa(lp244
F0.097231
aF0.00026822
aF0.084378
aF0.00026352
aF0.0698
aF0.0002576
aa(lp245
F0.060818
aF0.00025321
aF0.051237
aF0.00025092
aF0.051808
aF0.00024671
aa(lp246
F0.052559
aF0.00024139
aF0.05314
aF0.00023745
aF0.053454
aF0.00023537
aa(lp247
F0.054053
aF0.00023149
aF0.054842
aF0.0002266
aF0.055452
aF0.00022297
aa(lp248
F0.055618
aF0.00022201
aF0.055625
aF0.00022196
aF0.055826
aF0.00022081
aa(lp249
F0.056571
aF0.00021664
aF0.057552
aF0.00021141
aF0.058312
aF0.00020756
aa(lp250
F0.058608
aF0.00020609
aF0.058982
aF0.00020428
aF0.059566
aF0.00020152
aa(lp251
F0.06023
aF0.00019848
aF0.060821
aF0.00019586
aF0.061203
aF0.00019421
aa(lp252
F0.061467
aF0.0001931
aF0.062101
aF0.00019046
aF0.062936
aF0.00018713
aa(lp253
F0.06358
aF0.00018465
aF0.064099
aF0.00018279
aF0.065031
aF0.00017958
aa(lp254
F0.065377
aF0.00017842
aF0.065385
aF0.00017839
aF0.065675
aF0.00017743
aa(lp255
F0.066462
aF0.00017489
aF0.066891
aF0.00017353
aF0.067458
aF0.00017178
aa(lp256
F0.068344
aF0.00016913
aF0.06935
aF0.00016623
aF0.070245
aF0.00016374
aa(lp257
F0.070823
aF0.00016219
aF0.07116
aF0.0001613
aF0.07194
aF0.00015928
aa(lp258
F0.073163
aF0.00015625
aF0.074553
aF0.00015297
aF0.075793
aF0.00015019
aa(lp259
F0.076592
aF0.00014847
aF0.076795
aF0.00014804
aF0.076804
aF0.00014802
aa(lp260
F0.076969
aF0.00014768
aF0.077619
aF0.00014633
aF0.078637
aF0.00014429
aa(lp261
F0.079792
aF0.00014206
aF0.080824
aF0.00014016
aF0.081489
aF0.00013896
aa(lp262
F0.08182
aF0.00013838
aF0.082482
aF0.00013724
aF0.083518
aF0.0001355
aa(lp263
F0.084694
aF0.0001336
aF0.08574
aF0.00013197
aF0.086413
aF0.00013095
aa(lp264
F0.086584
aF0.0001307
aF0.086593
aF0.00013068
aF0.086809
aF0.00013036
aa(lp265
F0.08741
aF0.00012948
aF0.088754
aF0.00012758
aF0.090105
aF0.00012576
aa(lp266
F0.090906
aF0.00012471
aF0.092015
aF0.0001233
aF0.092764
aF0.00012237
aa(lp267
F0.093503
aF0.00012148
aF0.094
aF0.0001209
aF0.094485
aF0.00012034
aa(lp268
F0.095139
aF0.00011959
aF0.095718
aF0.00011894
aF0.096563
aF0.00011801
aa(lp269
F0.097497
aF0.000117
aF0.099209
aF0.00011524
aF0.099836
aF0.00011461
aa(lp270
F0.099841
aF0.0001146
aF0.099842
aF0.0001146
aF0.099888
aF0.00011455
aa(lp271
F0.10001
aF0.00011442
aF0.10006
aF0.00011437
aF0.10007
aF0.00011436
aa(lp272
F0.10043
aF0.00011399
aF0.10139
aF0.00011302
aF0.10175
aF0.00011267
aa(lp273
F0.10176
aF0.00011266
aF0.10212
aF0.00011231
aF0.10346
aF0.00011105
aa(lp274
F0.10522
aF0.00010946
aF0.10659
aF0.0001083
aF0.10733
aF0.00010768
aa(lp275
F0.10875
aF0.00010654
aF0.11064
aF0.0001051
aF0.11208
aF0.00010405
aa(lp276
F0.11341
aF0.00010311
aF0.11725
aF0.00010061
aF0.12327
aF9.7117e-05
aa(lp277
F0.13024
aF9.3695e-05
aF0.1366
aF9.1056e-05
aF0.14078
aF8.9529e-05
aa(lp278
F0.14292
aF8.8801e-05
aF0.14737
aF8.7399e-05
aF0.15447
aF8.5428e-05
aa(lp279
F0.16272
aF8.3474e-05
aF0.17022
aF8.195e-05
aF0.1752
aF8.1061e-05
aa(lp280
F0.17872
aF8.048e-05
aF0.18501
aF7.9529e-05
aF0.18866
aF7.9021e-05
aa(lp281
F0.19231
aF7.8543e-05
aF0.19428
aF7.8295e-05
aF0.19603
aF7.8083e-05
aa(lp282
F0.19753
aF7.7904e-05
aF0.19991
aF7.763e-05
aF0.20078
aF7.7532e-05
aa(lp283
F0.20155
aF7.7446e-05
aF0.20368
aF7.7214e-05
aF0.20569
aF7.7002e-05
aa(lp284
F0.21031
aF7.6537e-05
aF0.21642
aF7.5968e-05
aF0.22116
aF7.556e-05
aa(lp285
F0.22303
aF7.5406e-05
aF0.22525
aF7.5228e-05
aF0.22816
aF7.5003e-05
aa(lp286
F0.23041
aF7.4835e-05
aF0.23405
aF7.4573e-05
aF0.24643
aF7.3768e-05
aa(lp287
F0.26634
aF7.2704e-05
aF0.28973
aF7.1725e-05
aF0.31124
aF7.1015e-05
aa(lp288
F0.32543
aF7.0622e-05
aF0.33026
aF7.05e-05
aF0.33497
aF7.0386e-05
aa(lp289
F0.34116
aF7.0243e-05
aF0.34595
aF7.0138e-05
aF0.34738
aF7.0107e-05
aa(lp290
F0.34795
aF7.0095e-05
aF0.3487
aF7.0079e-05
aF0.34927
aF7.0067e-05
aa(lp291
F0.35031
aF7.0046e-05
aF0.35274
aF6.9996e-05
aF0.35628
aF6.9925e-05
aa(lp292
F0.36358
aF6.9786e-05
aF0.36627
aF6.9737e-05
aF0.36628
aF6.9737e-05
aa(lp293
F0.36629
aF6.9737e-05
aF0.3663
aF6.9736e-05
aF0.36803
aF6.9705e-05
aa(lp294
F0.37276
aF6.9623e-05
aF0.37525
aF6.958e-05
aF0.3773
aF6.9546e-05
aa(lp295
F0.3793
aF6.9513e-05
aF0.38401
aF6.9438e-05
aF0.3902
aF6.9344e-05
aa(lp296
F0.39498
aF6.9274e-05
aF0.39876
aF6.922e-05
aF0.40564
aF6.9127e-05
aa(lp297
F0.41061
aF6.9062e-05
aF0.42051
aF6.894e-05
aF0.43615
aF6.8764e-05
aa(lp298
F0.45415
aF6.8584e-05
aF0.47014
aF6.844e-05
aF0.48053
aF6.8353e-05
aa(lp299
F0.48565
aF6.8313e-05
aF0.49582
aF6.8236e-05
aF0.51188
aF6.8125e-05
aa(lp300
F0.53033
aF6.8009e-05
aF0.54694
aF6.7915e-05
aF0.55774
aF6.7859e-05
aa(lp301
F0.56495
aF6.7823e-05
aF0.57738
aF6.7765e-05
aF0.58228
aF6.7743e-05
aa(lp302
F0.58315
aF6.7739e-05
aF0.58369
aF6.7736e-05
aF0.58431
aF6.7734e-05
aa(lp303
F0.58565
aF6.7728e-05
aF0.58867
aF6.7715e-05
aF0.59257
aF6.7698e-05
aa(lp304
F0.6002
aF6.7667e-05
aF0.6033
aF6.7654e-05
aF0.60408
aF6.7651e-05
aa(lp305
F0.60464
aF6.7649e-05
aF0.6054
aF6.7646e-05
aF0.60703
aF6.7639e-05
aa(lp306
F0.61075
aF6.7625e-05
aF0.61313
aF6.7616e-05
aF0.61591
aF6.7605e-05
aa(lp307
F0.61693
aF6.7602e-05
aF0.61694
aF6.7602e-05
aF0.61695
aF6.7602e-05
aa(lp308
F0.61696
aF6.7602e-05
aF0.619
aF6.7594e-05
aF0.62731
aF6.7564e-05
aa(lp309
F0.64087
aF6.7518e-05
aF0.65747
aF6.7465e-05
aF0.67426
aF6.7416e-05
aa(lp310
F0.68829
aF6.7377e-05
aF0.69705
aF6.7354e-05
aF0.70619
aF6.7331e-05
aa(lp311
F0.73461
aF6.7266e-05
aF0.78003
aF6.7176e-05
aF0.83298
aF6.7089e-05
aa(lp312
F0.88133
aF6.7024e-05
aF0.9131
aF6.6987e-05
aF0.92245
aF6.6976e-05
aa(lp313
F0.92715
aF6.6971e-05
aF0.93187
aF6.6966e-05
aF0.94116
aF6.6957e-05
aa(lp314
F0.95525
aF6.6943e-05
aF0.97211
aF6.6927e-05
aF0.97833
aF6.6921e-05
aa(lp315
F0.97837
aF6.6921e-05
aF0.98112
aF6.6919e-05
aF0.98859
aF6.6912e-05
aa(lp316
F0.9928
aF6.6908e-05
aF0.99684
aF6.6905e-05
aF1.0018
aF6.6901e-05
aa(lp317
F1.016
aF6.6889e-05
aF1.0399
aF6.6871e-05
aF1.0704
aF6.6849e-05
aa(lp318
F1.1035
aF6.6827e-05
aF1.1349
aF6.6809e-05
aF1.1601
aF6.6795e-05
aa(lp319
F1.1755
aF6.6787e-05
aF1.1816
aF6.6784e-05
aF1.1881
aF6.678e-05
aa(lp320
F1.2183
aF6.6766e-05
aF1.2959
aF6.6733e-05
aF1.3356
aF6.6719e-05
aa(lp321
F1.3727
aF6.6707e-05
aF1.4104
aF6.6695e-05
aF1.4215
aF6.6692e-05
aa(lp322
F1.4215
aF6.6692e-05
aF1.4308
aF6.6689e-05
aF1.4562
aF6.6682e-05
aa(lp323
F1.4655
aF6.668e-05
aF1.4656
aF6.668e-05
aF1.6008
aF6.6649e-05
aa(lp324
F2.0002
aF6.6592e-05
aF2.3285
aF6.6565e-05
aF2.8293
aF6.6541e-05
aa(lp325
F3.2423
aF6.653e-05
aF3.8754
aF6.6518e-05
aF4.3966
aF6.6513e-05
aa(lp326
F5.1969
aF6.6507e-05
aF5.8187
aF6.6504e-05
aF6.7153
aF6.6501e-05
aa(lp327
F7.1336
aF6.65e-05
aF7.3348
aF6.65e-05
aF7.7268
aF6.6499e-05
aa(lp328
F9.0423
aF6.6497e-05
aF11.178
aF6.6496e-05
aF13.576
aF6.6495e-05
aa(lp329
F15.375
aF6.6494e-05
aF16.384
aF6.6494e-05
aF18.564
aF6.6494e-05
aa(lp330
F22.086
aF6.6494e-05
aF26.049
aF6.6493e-05
aF29.045
aF6.6493e-05
aa(lp331
F30.674
aF6.6493e-05
aF34.085
aF6.6493e-05
aF39.67
aF6.6493e-05
aa(lp332
F46.092
aF6.6493e-05
aF51.054
aF6.6493e-05
aF53.793
aF6.6493e-05
aa(lp333
F59.622
aF6.6493e-05
aF69.431
aF6.6493e-05
aF81.083
aF6.6493e-05
aa(lp334
F90.321
aF6.6493e-05
aF95.497
aF6.6493e-05
aF106.66
aF6.6493e-05
aa(lp335
F125.81
aF6.6493e-05
aF148.92
aF6.6493e-05
aF167.38
aF6.6493e-05
aa(lp336
F177.74
aF6.6493e-05
aF200.08
aF6.6493e-05
aF238.15
aF6.6493e-05
aa(lp337
F283.44
aF6.6493e-05
aF318.97
aF6.6493e-05
aF338.64
aF6.6493e-05
aa(lp338
F380.35
aF6.6493e-05
aF449.33
aF6.6493e-05
aF528.04
aF6.6493e-05
aa(lp339
F587.42
aF6.6493e-05
aF619.45
aF6.6493e-05
aF685.51
aF6.6493e-05
aa(lp340
F789.56
aF6.6493e-05
aF901.11
aF6.6493e-05
aF980.66
aF6.6493e-05
aa(lp341
F1022.0
aF6.6493e-05
aF1104.1
aF6.6493e-05
aF1225.1
aF6.6493e-05
aa(lp342
F1344.2
aF6.6493e-05
aF1422.6
aF6.6493e-05
aF1461.3
aF6.6493e-05
aa(lp343
F1533.9
aF6.6493e-05
aF1630.6
aF6.6493e-05
aF1713.0
aF6.6493e-05
aa(lp344
F1759.7
aF6.6493e-05
aF1780.3
aF6.6493e-05
aF1814.0
aF6.6493e-05
aa(lp345
F1846.7
aF6.6493e-05
aF1859.4
aF6.6493e-05
aF1856.7
aF6.6493e-05
aa(lp346
F1851.8
aF6.6493e-05
aF1835.8
aF6.6493e-05
aF1798.1
aF6.6493e-05
aa(lp347
F1745.3
aF6.6493e-05
aF1702.0
aF6.6493e-05
aF1678.0
aF6.6493e-05
aa(lp348
F1627.8
aF6.6493e-05
aF1548.6
aF6.6493e-05
aF1465.1
aF6.6493e-05
aa(lp349
F1407.0
aF6.6493e-05
aF1377.4
aF6.6493e-05
aF1319.7
aF6.6493e-05
aa(lp350
F1237.3
aF6.6493e-05
aF1159.1
aF6.6493e-05
aF1108.6
aF6.6493e-05
aa(lp351
F1083.9
aF6.6493e-05
aF1037.7
aF6.6493e-05
aF975.64
aF6.6493e-05
aa(lp352
F920.5
aF6.6493e-05
aF886.85
aF6.6493e-05
aF870.92
aF6.6493e-05
aa(lp353
F842.09
aF6.6493e-05
aF805.43
aF6.6493e-05
aF775.05
aF6.6493e-05
aa(lp354
F757.7
aF6.6493e-05
aF749.85
aF6.6493e-05
aF736.36
aF6.6493e-05
aa(lp355
F720.84
aF6.6493e-05
aF709.96
aF6.6493e-05
aF704.95
aF6.6493e-05
aa(lp356
F703.1
aF6.6493e-05
aF700.77
aF6.6493e-05
aF700.26
aF6.6493e-05
aa(lp357
F702.85
aF6.6493e-05
aF706.21
aF6.6493e-05
aF707.26
aF6.6493e-05
aa.