(lp0
(lp1
F3537.9
aF7.9679
aF3697.4
aF7.9513
aF4063.7
aF7.9261
aa(lp2
F4927.2
aF7.8977
aF6517.4
aF7.871
aF8308.3
aF7.849
aa(lp3
F9382.4
aF7.3089
aF9767.8
aF6.8167
aF9876.8
aF6.5789
aa(lp4
F9909.2
aF6.2527
aF9886.0
aF6.1233
aF9876.1
aF6.0824
aa(lp5
F9855.6
aF6.0092
aF9773.1
aF5.7965
aF9603.7
aF5.5328
aa(lp6
F9463.5
aF5.3406
aF9415.8
aF5.2783
aF9389.3
aF5.2442
aa(lp7
F9352.5
aF5.1978
aF9269.8
aF5.1065
aF9233.4
aF5.0676
aa(lp8
F9217.2
aF5.0513
aF9067.5
aF4.8743
aF8962.7
aF4.4421
aa(lp9
F8948.2
aF4.2861
aF8947.9
aF4.2598
aF8940.9
aF4.1911
aa(lp10
F8941.7
aF3.9691
aF9007.3
aF3.6697
aF9160.5
aF3.3979
aa(lp11
F9302.4
aF3.2265
aF9356.0
aF3.1711
aF9392.9
aF3.135
aa(lp12
F9410.1
aF3.1186
aF9419.7
aF3.1097
aF9430.2
aF3.0999
aa(lp13
F9449.6
aF3.0823
aF9500.3
aF3.0377
aF9627.5
aF2.9362
aa(lp14
F9742.5
aF2.8558
aF9918.3
aF2.739
aF10054.0
aF2.6532
aa(lp15
F10253.0
aF2.5362
aF10325.0
aF2.4925
aF10336.0
aF2.4858
aa(lp16
F10386.0
aF2.4553
aF10510.0
aF2.3806
aF10562.0
aF2.3494
aa(lp17
F10584.0
aF2.3369
aF10612.0
aF2.321
aF10665.0
aF2.2904
aa(lp18
F10691.0
aF2.2749
aF10712.0
aF2.2629
aF10852.0
aF2.1796
aa(lp19
F10980.0
aF1.9807
aF10984.0
aF1.9101
aF10985.0
aF1.9004
aa(lp20
F10986.0
aF1.8917
aF10987.0
aF1.8774
aF10995.0
aF1.8197
aa(lp21
F10992.0
aF1.6852
aF10996.0
aF1.6363
aF10998.0
aF1.6283
aa(lp22
F11005.0
aF1.6054
aF11081.0
aF1.5521
aF11127.0
aF1.5264
aa(lp23
F11162.0
aF1.5083
aF11320.0
aF1.4556
aF11759.0
aF1.3383
aa(lp24
F11942.0
aF1.2961
aF11968.0
aF1.2902
aF12013.0
aF1.2805
aa(lp25
F12108.0
aF1.2603
aF12231.0
aF7.2657
aF12336.0
aF6.9673
aa(lp26
F12225.0
aF6.7709
aF12051.0
aF6.4694
aF12332.0
aF6.1844
aa(lp27
F12421.0
aF6.0991
aF12436.0
aF6.0846
aF12453.0
aF6.0688
aa(lp28
F12484.0
aF6.04
aF12647.0
aF5.8903
aF13127.0
aF5.5297
aa(lp29
F13330.0
aF5.3954
aF13368.0
aF5.3706
aF13501.0
aF5.2853
aa(lp30
F13815.0
aF5.0839
aF13940.0
aF5.0043
aF13976.0
aF4.9816
aa(lp31
F14074.0
aF4.9202
aF14304.0
aF4.7785
aF14425.0
aF4.7047
aa(lp32
F14531.0
aF4.6423
aF14583.0
aF4.6121
aF14618.0
aF4.5917
aa(lp33
F14650.0
aF4.5731
aF14702.0
aF4.5428
aF14734.0
aF4.5245
aa(lp34
F14769.0
aF4.5045
aF14796.0
aF4.4887
aF14817.0
aF4.4765
aa(lp35
F14834.0
aF4.4666
aF6286.7
aF4.3812
aF6507.8
aF4.167
aa(lp36
F6587.8
aF4.0855
aF6604.6
aF4.0679
aF6637.8
aF4.0328
aa(lp37
F6708.3
aF3.9558
aF6600.7
aF3.9219
aF6503.6
aF3.9052
aa(lp38
F6217.8
aF3.8569
aF5522.6
aF3.7443
aF4190.4
aF3.5465
aa(lp39
F4518.7
aF3.378
aF4256.9
aF3.3069
aF4280.4
aF3.217
aa(lp40
F4293.8
aF3.1501
aF3921.5
aF3.1303
aF3395.1
aF3.124
aa(lp41
F2825.9
aF3.0892
aF2750.8
aF2.9738
aF2639.2
aF2.8395
aa(lp42
F2523.7
aF2.699
aF2470.0
aF2.6283
aF2428.1
aF2.5708
aa(lp43
F2412.2
aF2.5484
aF2377.6
aF2.5436
aF2198.8
aF2.4762
aa(lp44
F2086.8
aF2.3077
aF2050.2
aF2.2435
aF1526.7
aF2.227
aa(lp45
F1504.1
aF2.1839
aF1461.0
aF2.0865
aF1452.9
aF2.0495
aa(lp46
F1452.2
aF2.0421
aF1448.0
aF2.0167
aF1441.2
aF1.9562
aa(lp47
F1439.6
aF1.9297
aF1439.1
aF1.916
aF1460.7
aF1.7862
aa(lp48
F1567.0
aF1.4941
aF1622.3
aF1.3992
aF1617.0
aF1.3901
aa(lp49
F1620.7
aF1.3826
aF1626.3
aF1.3714
aF1643.7
aF1.3385
aa(lp50
F3586.7
aF1.2636
aF3376.3
aF1.2361
aF3251.6
aF1.2322
aa(lp51
F3160.3
aF1.2294
aF3035.5
aF1.2255
aF2944.2
aF1.2227
aa(lp52
F2819.5
aF1.2188
aF2066.6
aF1.196
aF1605.0
aF1.1397
aa(lp53
F1615.1
aF1.1187
aF1616.9
aF1.1153
aF1619.7
aF1.1096
aa(lp54
F1625.8
aF1.0978
aF1628.8
aF1.0923
aF1630.5
aF1.089
aa(lp55
F1634.5
aF1.0817
aF1643.6
aF1.0654
aF1647.7
aF1.0583
aa(lp56
F1649.6
aF1.0551
aF1651.5
aF1.0519
aF1654.7
aF1.0464
aa(lp57
F1656.3
aF1.0438
aF1657.1
aF1.0422
aF1660.8
aF1.0356
aa(lp58
F1671.0
aF1.0194
aF1686.0
aF0.99658
aF1717.8
aF0.9519
aa(lp59
F1722.9
aF0.93518
aF1704.4
aF0.93245
aF1725.6
aF0.91033
aa(lp60
F1782.5
aF0.85565
aF1432.6
aF0.83626
aF419.22
aF0.83507
aa(lp61
F45.702
aF0.81626
aF40.084
aF0.76862
aF35.921
aF0.72646
aa(lp62
F30.725
aF0.66192
aF29.202
aF0.63952
aF29.094
aF0.63783
aa(lp63
F18.393
aF0.63072
aF18.043
aF0.62144
aF17.705
aF0.61172
aa(lp64
F17.402
aF0.60219
aF17.198
aF0.59577
aF16.904
aF0.58586
aa(lp65
F16.792
aF0.58174
aF16.753
aF0.58025
aF16.49
aF0.56935
aa(lp66
F15.878
aF0.53255
aF15.15
aF0.48897
aF14.837
aF0.45862
aa(lp67
F14.78
aF0.45015
aF11.743
aF0.448
aF11.549
aF0.43999
aa(lp68
F11.015
aF0.41626
aF10.591
aF0.39415
aF10.483
aF0.38767
aa(lp69
F10.469
aF0.38678
aF10.348
aF0.37924
aF10.699
aF0.36038
aa(lp70
F10.881
aF0.35349
aF10.903
aF0.3527
aF11.073
aF0.34656
aa(lp71
F11.534
aF0.33119
aF11.066
aF0.32547
aF9.7853
aF0.32485
aa(lp72
F3.9691
aF0.32004
aF4.3532
aF0.30813
aF4.5043
aF0.30368
aa(lp73
F4.5267
aF0.30302
aF4.5402
aF0.29449
aF4.1782
aF0.27327
aa(lp74
F4.0439
aF0.26559
aF3.0445
aF0.26449
aF3.0501
aF0.26245
aa(lp75
F3.0552
aF0.26062
aF3.0568
aF0.26008
aF3.0733
aF0.25467
aa(lp76
F3.1217
aF0.24109
aF3.1416
aF0.23618
aF3.1436
aF0.23571
aa(lp77
F3.1611
aF0.23169
aF3.1472
aF0.2216
aF3.1417
aF0.21773
aa(lp78
F2.8727
aF0.21688
aF2.8589
aF0.21357
aF2.826
aF0.20565
aa(lp79
F2.8136
aF0.2027
aF2.812
aF0.20232
aF2.8076
aF0.20127
aa(lp80
F2.7947
aF0.19819
aF2.7819
aF0.19518
aF2.771
aF0.19264
aa(lp81
F2.7447
aF0.18651
aF2.7112
aF0.17888
aF2.6864
aF0.1733
aa(lp82
F2.6698
aF0.16911
aF2.6419
aF0.1619
aF2.6314
aF0.15925
aa(lp83
F2.6303
aF0.15897
aF2.6265
aF0.15803
aF1.1578
aF0.15578
aa(lp84
F1.1596
aF0.15487
aF1.1602
aF0.1546
aF1.1718
aF0.14903
aa(lp85
F1.185
aF0.1353
aF1.1892
aF0.13052
aF1.1896
aF0.13008
aa(lp86
F1.1913
aF0.12833
aF1.197
aF0.12262
aF1.2049
aF0.11563
aa(lp87
F1.2157
aF0.11062
aF1.2187
aF0.1093
aF1.2189
aF0.10921
aa(lp88
F1.2207
aF0.10848
aF1.2268
aF0.10591
aF1.2349
aF0.10266
aa(lp89
F1.2411
aF0.10026
aF1.2442
aF0.099116
aF1.249
aF0.097352
aa(lp90
F1.2538
aF0.095628
aF1.2553
aF0.095079
aF1.2558
aF0.094931
aa(lp91
F1.257
aF0.094499
aF1.2599
aF0.093475
aF1.2612
aF0.093051
aa(lp92
F1.2616
aF0.092907
aF1.2641
aF0.092062
aF1.2728
aF0.089165
aa(lp93
F1.2842
aF0.085557
aF1.293
aF0.082916
aF1.2956
aF0.082162
aa(lp94
F1.2962
aF0.081978
aF1.3003
aF0.080819
aF1.3108
aF0.07793
aa(lp95
F1.3147
aF0.076864
aF1.3152
aF0.076751
aF1.3166
aF0.076359
aa(lp96
F0.87598
aF0.075412
aF0.87666
aF0.075049
aF0.87676
aF0.074994
aa(lp97
F0.87892
aF0.073841
aF0.88473
aF0.070854
aF0.88692
aF0.069762
aa(lp98
F0.88713
aF0.069662
aF0.88822
aF0.069129
aF0.89201
aF0.067307
aa(lp99
F0.89694
aF0.06502
aF0.90069
aF0.063334
aF0.9018
aF0.062862
aa(lp100
F0.90204
aF0.062775
aF0.90376
aF0.062139
aF0.90823
aF0.060526
aa(lp101
F0.84073
aF0.059947
aF0.84075
aF0.059942
aF0.84083
aF0.059906
aa(lp102
F0.84208
aF0.059364
aF0.84777
aF0.057998
aF0.85094
aF0.057479
aa(lp103
F0.85142
aF0.057401
aF0.8552
aF0.05679
aF0.86507
aF0.055237
aa(lp104
F0.86886
aF0.054655
aF0.86934
aF0.054582
aF0.8719
aF0.054195
aa(lp105
F0.87782
aF0.053225
aF0.87721
aF0.052863
aF0.87712
aF0.052828
aa(lp106
F0.85711
aF0.052738
aF0.84902
aF0.052528
aF0.84869
aF0.0524
aa(lp107
F0.84833
aF0.052261
aF0.84813
aF0.052185
aF0.84795
aF0.052116
aa(lp108
F0.84667
aF0.051624
aF0.84214
aF0.049919
aF0.83626
aF0.0478
aa(lp109
F0.83172
aF0.046253
aF0.82983
aF0.045637
aF0.828
aF0.045058
aa(lp110
F0.78588
aF0.044732
aF0.78745
aF0.044282
aF0.78974
aF0.043632
aa(lp111
F0.79203
aF0.042995
aF0.79359
aF0.042566
aF0.79517
aF0.042139
aa(lp112
F0.79958
aF0.040968
aF0.80426
aF0.039503
aF0.80781
aF0.038424
aa(lp113
F0.80968
aF0.037914
aF0.81214
aF0.037297
aF0.81434
aF0.036755
aa(lp114
F0.81789
aF0.035902
aF0.82057
aF0.035271
aF0.82437
aF0.0344
aa(lp115
F0.82589
aF0.034058
aF0.82442
aF0.033978
aF0.82608
aF0.033641
aa(lp116
F0.83021
aF0.032821
aF0.83253
aF0.032371
aF0.83529
aF0.031844
aa(lp117
F0.83804
aF0.031328
aF0.83974
aF0.031016
aF0.84222
aF0.030572
aa(lp118
F0.8432
aF0.030399
aF0.84339
aF0.030364
aF0.84404
aF0.030249
aa(lp119
F0.84562
aF0.029973
aF0.84631
aF0.029855
aF0.8466
aF0.029803
aa(lp120
F0.84759
aF0.029634
aF0.85087
aF0.029076
aF0.85513
aF0.028368
aa(lp121
F0.85838
aF0.027841
aF0.85931
aF0.027691
aF0.85951
aF0.02766
aa(lp122
F0.86114
aF0.0274
aF0.86553
aF0.026737
aF0.86892
aF0.026318
aa(lp123
F0.87294
aF0.025829
aF0.87449
aF0.025643
aF0.87473
aF0.025615
aa(lp124
F0.87667
aF0.025385
aF0.88172
aF0.024796
aF0.88463
aF0.024463
aa(lp125
F0.88755
aF0.024135
aF0.89083
aF0.023771
aF0.89687
aF0.023118
aa(lp126
F0.89961
aF0.022826
aF0.90111
aF0.022669
aF0.90175
aF0.022603
aa(lp127
F0.90198
aF0.022579
aF0.90315
aF0.022457
aF0.9076
aF0.02201
aa(lp128
F0.9146
aF0.021336
aF0.92245
aF0.020606
aF0.92936
aF0.019985
aa(lp129
F0.93378
aF0.019599
aF0.93592
aF0.019415
aF0.93984
aF0.019084
aa(lp130
F0.94494
aF0.018662
aF0.94882
aF0.018347
aF0.94994
aF0.018257
aa(lp131
F0.95017
aF0.018239
aF0.95046
aF0.018215
aF0.95104
aF0.01817
aa(lp132
F0.95133
aF0.018147
aF0.95156
aF0.018128
aF0.9526
aF0.018046
aa(lp133
F0.95643
aF0.017746
aF0.96236
aF0.017291
aF0.96894
aF0.016795
aa(lp134
F0.97467
aF0.016371
aF0.97834
aF0.016106
aF0.98034
aF0.015962
aa(lp135
F0.98445
aF0.015673
aF0.99025
aF0.015305
aF0.99431
aF0.01503
aa(lp136
F0.99635
aF0.014896
aF0.99896
aF0.014727
aF1.0
aF0.014661
aa(lp137
F1.0002
aF0.014647
aF1.0013
aF0.014579
aF1.0052
aF0.014331
aa(lp138
F1.0113
aF0.013955
aF1.0181
aF0.013545
aF1.0242
aF0.013195
aa(lp139
F1.028
aF0.012976
aF1.03
aF0.01286
aF1.0342
aF0.012629
aa(lp140
F1.0396
aF0.012336
aF1.0438
aF0.012117
aF1.046
aF0.012002
aa(lp141
F1.0501
aF0.011791
aF1.0554
aF0.011522
aF1.0594
aF0.011321
aa(lp142
F1.0612
aF0.011233
aF1.0631
aF0.01114
aF1.0654
aF0.011026
aa(lp143
F1.0699
aF0.01081
aF1.0735
aF0.010644
aF1.0786
aF0.010407
aa(lp144
F1.0805
aF0.010319
aF1.0807
aF0.01031
aF1.0817
aF0.010268
aa(lp145
F1.084
aF0.010162
aF1.0858
aF0.01008
aF1.0895
aF0.009918
aa(lp146
F1.0943
aF0.0097114
aF1.0979
aF0.0095567
aF1.0994
aF0.0094911
aa(lp147
F1.101
aF0.0094233
aF1.1017
aF0.0093943
aF1.102
aF0.0093825
aa(lp148
F1.1024
aF0.009368
aF1.103
aF0.0093405
aF1.1033
aF0.0093276
aa(lp149
F1.1035
aF0.0093198
aF1.1046
aF0.0092755
aF1.1073
aF0.0091636
aa(lp150
F1.1086
aF0.0091105
aF1.1094
aF0.0090764
aF1.1098
aF0.0090611
aa(lp151
F1.11
aF0.0090536
aF1.1116
aF0.0089904
aF1.1156
aF0.0088278
aa(lp152
F1.1172
aF0.0087665
aF1.1174
aF0.0087593
aF1.1179
aF0.0087381
aa(lp153
F1.1192
aF0.0086878
aF1.1198
aF0.0086669
aF1.12
aF0.0086597
aa(lp154
F1.1219
aF0.008587
aF1.1268
aF0.0083992
aF1.1287
aF0.0083292
aa(lp155
F1.1289
aF0.0083224
aF1.1325
aF0.0081898
aF1.142
aF0.0078469
aa(lp156
F1.1488
aF0.0076074
aF1.1579
aF0.0072949
aF1.1613
aF0.0071826
aa(lp157
F1.1615
aF0.007177
aF1.1624
aF0.0071459
aF1.1656
aF0.0070384
aa(lp158
F1.1699
aF0.0069012
aF1.173
aF0.0067983
aF1.1751
aF0.0067334
aa(lp159
F1.1795
aF0.0065936
aF1.1852
aF0.0064167
aF1.1895
aF0.0062852
aa(lp160
F1.1918
aF0.0062171
aF1.1948
aF0.0061265
aF1.1965
aF0.0060767
aa(lp161
F1.1988
aF0.0060087
aF1.2024
aF0.0059047
aF1.2063
aF0.0057899
aa(lp162
F1.2098
aF0.0056907
aF1.212
aF0.0056281
aF1.2126
aF0.0056111
aa(lp163
F1.2128
aF0.005607
aF1.2141
aF0.0055703
aF1.2175
aF0.0054754
aa(lp164
F1.2184
aF0.0054398
aF1.2179
aF0.0054358
aF1.2186
aF0.0054127
aa(lp165
F1.2207
aF0.0053541
aF1.2216
aF0.0053315
aF1.2217
aF0.0053276
aa(lp166
F1.2228
aF0.0052978
aF1.2266
aF0.0051928
aF1.2314
aF0.0050599
aa(lp167
F1.2351
aF0.0049608
aF1.236
aF0.0049336
aF1.236
aF0.0049301
aa(lp168
F1.2367
aF0.00491
aF1.2394
aF0.00484
aF1.2428
aF0.0047506
aa(lp169
F1.2454
aF0.0046835
aF1.2461
aF0.0046646
aF1.2463
aF0.0046613
aa(lp170
F1.2471
aF0.0046406
aF1.2499
aF0.0045683
aF1.2535
aF0.0044761
aa(lp171
F1.2563
aF0.004407
aF1.2577
aF0.0043707
aF1.2604
aF0.0043037
aa(lp172
F1.2638
aF0.0042182
aF1.2664
aF0.0041541
aF1.2678
aF0.0041204
aa(lp173
F1.2703
aF0.0040582
aF1.2736
aF0.0039788
aF1.2761
aF0.0039193
aa(lp174
F1.2774
aF0.003888
aF1.2799
aF0.0038302
aF1.283
aF0.0037565
aa(lp175
F1.2853
aF0.0037011
aF1.2864
aF0.0036763
aF1.288
aF0.0036379
aa(lp176
F1.2901
aF0.0035887
aF1.2917
aF0.0035515
aF1.2921
aF0.0035408
aa(lp177
F1.2922
aF0.0035386
aF1.2931
aF0.0035189
aF1.2952
aF0.0034681
aa(lp178
F1.2962
aF0.0034445
aF1.2968
aF0.0034301
aF1.2974
aF0.0034156
aa(lp179
F1.2984
aF0.0033905
aF1.2999
aF0.0033554
aF1.3028
aF0.0032855
aa(lp180
F1.3044
aF0.0032503
aF1.3055
aF0.0032226
aF1.306
aF0.0032118
aa(lp181
F1.3061
aF0.0032098
aF1.3066
aF0.0031969
aF1.3086
aF0.0031518
aa(lp182
F1.3092
aF0.0030942
aF1.3109
aF0.0030509
aF1.3113
aF0.0030388
aa(lp183
F1.3114
aF0.003037
aF1.3119
aF0.0030249
aF1.3135
aF0.0029829
aa(lp184
F1.3156
aF0.0029292
aF1.3171
aF0.0028888
aF1.3179
aF0.0028676
aa(lp185
F1.3194
aF0.0028284
aF1.3212
aF0.0027782
aF1.3226
aF0.0027404
aa(lp186
F1.3233
aF0.0027206
aF1.3246
aF0.0026839
aF1.3262
aF0.0026369
aa(lp187
F1.3274
aF0.0026016
aF1.3284
aF0.0025738
aF1.33
aF0.0025239
aa(lp188
F1.3309
aF0.002496
aF1.3317
aF0.002469
aF1.3321
aF0.0024574
aa(lp189
F1.3322
aF0.0024523
aF1.3323
aF0.0024499
aF1.3324
aF0.0024485
aa(lp190
F1.3329
aF0.0024313
aF1.3342
aF0.0023863
aF1.3347
aF0.0023699
aa(lp191
F1.3347
aF0.0023692
aF1.3349
aF0.0023594
aF1.3357
aF0.0023336
aa(lp192
F1.3359
aF0.0023237
aF1.336
aF0.0023224
aF1.3362
aF0.0023128
aa(lp193
F1.3368
aF0.0022883
aF1.3375
aF0.0022603
aF1.3387
aF0.0022093
aa(lp194
F1.3394
aF0.0021785
aF1.3401
aF0.0021448
aF1.3404
aF0.0021303
aa(lp195
F1.3406
aF0.0021237
aF1.3406
aF0.0021208
aF1.3407
aF0.0021196
aa(lp196
F1.3408
aF0.0021102
aF1.3413
aF0.002086
aF1.3414
aF0.0020772
aa(lp197
F1.3414
aF0.0020771
aF1.3414
aF0.0020771
aF1.3417
aF0.0020615
aa(lp198
F1.3424
aF0.0020196
aF1.3426
aF0.0020041
aF1.3426
aF0.002003
aa(lp199
F1.3426
aF0.0020022
aF1.3426
aF0.0020011
aF1.3426
aF0.0020003
aa(lp200
F1.3426
aF0.0019992
aF1.3427
aF0.0019984
aF1.3427
aF0.0019973
aa(lp201
F1.3427
aF0.0019938
aF1.3428
aF0.0019856
aF1.3429
aF0.0019822
aa(lp202
F1.3429
aF0.0019811
aF1.343
aF0.0019739
aF1.3432
aF0.0019555
aa(lp203
F1.3433
aF0.0019441
aF1.3434
aF0.0019314
aF1.3434
aF0.0019265
aa(lp204
F1.3434
aF0.001926
aF1.3435
aF0.0019129
aF1.3438
aF0.0018783
aa(lp205
F1.3439
aF0.0018514
aF1.3439
aF0.0017985
aF1.3434
aF0.0017324
aa(lp206
F1.3428
aF0.0016838
aF1.3423
aF0.0016549
aF1.341
aF0.0015954
aa(lp207
F1.3386
aF0.0015218
aF1.3364
aF0.0014684
aF1.3352
aF0.001446
aa(lp208
F1.3335
aF0.0014143
aF1.3309
aF0.0013744
aF1.3288
aF0.0013447
aa(lp209
F1.3282
aF0.0013367
aF1.3281
aF0.0013361
aF1.3276
aF0.0013301
aa(lp210
F1.3257
aF0.0013073
aF1.3225
aF0.0012728
aF1.3186
aF0.0012352
aa(lp211
F1.3149
aF0.0012031
aF1.3124
aF0.0011831
aF1.3106
aF0.0011696
aa(lp212
F1.3058
aF0.0011362
aF1.2978
aF0.0010867
aF1.2879
aF0.001034
aa(lp213
F1.2783
aF0.00099016
aF1.2718
aF0.00096328
aF1.2701
aF0.00095659
aa(lp214
F1.27
aF0.00095616
aF1.2676
aF0.00094718
aF1.2611
aF0.00092362
aa(lp215
F1.2568
aF0.00090882
aF1.2495
aF0.00088543
aF1.2395
aF0.00085609
aa(lp216
F1.2314
aF0.00083446
aF1.2274
aF0.00082409
aF1.2203
aF0.00080666
aa(lp217
F1.2108
aF0.00078465
aF1.2033
aF0.00076832
aF1.1979
aF0.00075708
aa(lp218
F1.1886
aF0.00073848
aF1.1773
aF0.00071764
aF1.1553
aF0.0006807
aa(lp219
F1.1422
aF0.00066067
aF1.1288
aF0.00064164
aF1.1237
aF0.00063477
aa(lp220
F1.1235
aF0.00063453
aF1.1181
aF0.00062731
aF1.1031
aF0.0006084
aa(lp221
F1.0937
aF0.00059728
aF1.0784
aF0.00058011
aF1.054
aF0.00055466
aa(lp222
F1.0255
aF0.00052772
aF0.99925
aF0.00050534
aF0.982
aF0.00049165
aa(lp223
F0.9727
aF0.00048457
aF0.95388
aF0.00047085
aF0.92883
aF0.00045374
aa(lp224
F0.9092
aF0.00044121
aF0.90381
aF0.0004379
aF0.90357
aF0.00043775
aa(lp225
F0.89665
aF0.00043357
aF0.86893
aF0.00041754
aF0.82477
aF0.00039418
aa(lp226
F0.77316
aF0.00036995
aF0.72652
aF0.00035023
aF0.69621
aF0.00033836
aa(lp227
F0.68845
aF0.00033546
aF0.68817
aF0.00033536
aF0.68588
aF0.00033451
aa(lp228
F0.67708
aF0.00033128
aF0.66335
aF0.00032634
aF0.64783
aF0.00032089
aa(lp229
F0.63407
aF0.00031618
aF0.62523
aF0.0003132
aF0.61611
aF0.00031018
aa(lp230
F0.59719
aF0.00030405
aF0.58631
aF0.00030061
aF0.57138
aF0.000296
aa(lp231
F0.55173
aF0.00029015
aF0.53672
aF0.00028578
aF0.52586
aF0.00028267
aa(lp232
F0.50015
aF0.00027548
aF0.46682
aF0.0002665
aF0.44117
aF0.00025992
aa(lp233
F0.42417
aF0.00025568
aF0.39669
aF0.00024897
aF0.38663
aF0.00024656
aa(lp234
F0.38635
aF0.0002465
aF0.38462
aF0.00024608
aF0.38018
aF0.00024503
aa(lp235
F0.37846
aF0.00024462
aF0.37819
aF0.00024456
aF0.37745
aF0.00024438
aa(lp236
F0.37571
aF0.00024397
aF0.37496
aF0.00024379
aF0.37485
aF0.00024376
aa(lp237
F0.37482
aF0.00024376
aF0.37228
aF0.00024316
aF0.3629
aF0.00024096
aa(lp238
F0.35074
aF0.00023813
aF0.34149
aF0.000236
aF0.3341
aF0.00023433
aa(lp239
F0.32069
aF0.00023135
aF0.30989
aF0.00022896
aF0.29385
aF0.00022544
aa(lp240
F0.2852
aF0.00022355
aF0.27459
aF0.00022124
aF0.26094
aF0.00021829
aa(lp241
F0.25061
aF0.00021607
aF0.24245
aF0.00021432
aF0.22087
aF0.00020974
aa(lp242
F0.1885
aF0.00020291
aF0.1542
aF0.00019561
aF0.12645
aF0.0001895
aa(lp243
F0.11008
aF0.00018575
aF0.10618
aF0.00018481
aF0.10601
aF0.00018477
aa(lp244
F0.10233
aF0.00018388
aF0.089481
aF0.00018064
aF0.074914
aF0.00017655
aa(lp245
F0.065953
aF0.00017352
aF0.056363
aF0.00017194
aF0.056995
aF0.00016904
aa(lp246
F0.057825
aF0.00016537
aF0.058467
aF0.00016265
aF0.058815
aF0.00016121
aa(lp247
F0.059475
aF0.00015854
aF0.060347
aF0.00015517
aF0.06102
aF0.00015266
aa(lp248
F0.061203
aF0.000152
aF0.061211
aF0.00015197
aF0.061432
aF0.00015118
aa(lp249
F0.062255
aF0.0001483
aF0.063339
aF0.00014469
aF0.064177
aF0.00014203
aa(lp250
F0.064504
aF0.00014102
aF0.064918
aF0.00013977
aF0.065562
aF0.00013786
aa(lp251
F0.066294
aF0.00013577
aF0.066946
aF0.00013396
aF0.067367
aF0.00013283
aa(lp252
F0.067658
aF0.00013205
aF0.068358
aF0.00013024
aF0.069278
aF0.00012794
aa(lp253
F0.069989
aF0.00012623
aF0.07056
aF0.00012495
aF0.071587
aF0.00012273
aa(lp254
F0.071967
aF0.00012193
aF0.071977
aF0.00012191
aF0.072297
aF0.00012125
aa(lp255
F0.073163
aF0.00011949
aF0.073636
aF0.00011856
aF0.07426
aF0.00011735
aa(lp256
F0.075236
aF0.00011552
aF0.076345
aF0.00011352
aF0.077332
aF0.0001118
aa(lp257
F0.077968
aF0.00011073
aF0.07834
aF0.00011012
aF0.079201
aF0.00010873
aa(lp258
F0.080549
aF0.00010663
aF0.082083
aF0.00010437
aF0.083451
aF0.00010246
aa(lp259
F0.084334
aF0.00010127
aF0.084558
aF0.00010097
aF0.084568
aF0.00010096
aa(lp260
F0.08475
aF0.00010072
aF0.085468
aF9.979e-05
aF0.086592
aF9.8382e-05
aa(lp261
F0.087868
aF9.6846e-05
aF0.089009
aF9.5531e-05
aF0.089745
aF9.4708e-05
aa(lp262
F0.090111
aF9.4307e-05
aF0.090843
aF9.3517e-05
aF0.09199
aF9.2318e-05
aa(lp263
F0.093292
aF9.1007e-05
aF0.094449
aF8.9884e-05
aF0.095193
aF8.9181e-05
aa(lp264
F0.095382
aF8.9005e-05
aF0.095392
aF8.8995e-05
aF0.095631
aF8.8775e-05
aa(lp265
F0.096296
aF8.8168e-05
aF0.097784
aF8.6857e-05
aF0.09928
aF8.5596e-05
aa(lp266
F0.10017
aF8.4874e-05
aF0.10139
aF8.3901e-05
aF0.10222
aF8.3262e-05
aa(lp267
F0.10304
aF8.2649e-05
aF0.10359
aF8.2245e-05
aF0.10413
aF8.1856e-05
aa(lp268
F0.10485
aF8.134e-05
aF0.10549
aF8.0891e-05
aF0.10643
aF8.0249e-05
aa(lp269
F0.10746
aF7.9558e-05
aF0.10935
aF7.8339e-05
aF0.11004
aF7.7903e-05
aa(lp270
F0.11005
aF7.79e-05
aF0.11005
aF7.7899e-05
aF0.1101
aF7.7866e-05
aa(lp271
F0.11024
aF7.7776e-05
aF0.1103
aF7.7741e-05
aF0.11031
aF7.7734e-05
aa(lp272
F0.1107
aF7.7482e-05
aF0.11176
aF7.6811e-05
aF0.11216
aF7.6567e-05
aa(lp273
F0.11217
aF7.656e-05
aF0.11257
aF7.6321e-05
aF0.11406
aF7.5449e-05
aa(lp274
F0.11601
aF7.4356e-05
aF0.11751
aF7.3552e-05
aF0.11833
aF7.3127e-05
aa(lp275
F0.1199
aF7.2337e-05
aF0.12198
aF7.1347e-05
aF0.12357
aF7.0618e-05
aa(lp276
F0.12504
aF6.9974e-05
aF0.12926
aF6.8245e-05
aF0.13586
aF6.5837e-05
aa(lp277
F0.14348
aF6.3476e-05
aF0.15044
aF6.1655e-05
aF0.155
aF6.0602e-05
aa(lp278
F0.15734
aF6.0099e-05
aF0.16221
aF5.9133e-05
aF0.16998
aF5.7773e-05
aa(lp279
F0.179
aF5.6424e-05
aF0.18722
aF5.5373e-05
aF0.19266
aF5.4759e-05
aa(lp280
F0.19652
aF5.4359e-05
aF0.2034
aF5.3703e-05
aF0.2074
aF5.3352e-05
aa(lp281
F0.2114
aF5.3023e-05
aF0.21356
aF5.2851e-05
aF0.21547
aF5.2705e-05
aa(lp282
F0.21712
aF5.2581e-05
aF0.21972
aF5.2392e-05
aF0.22067
aF5.2325e-05
aa(lp283
F0.22153
aF5.2265e-05
aF0.22386
aF5.2105e-05
aF0.22605
aF5.1959e-05
aa(lp284
F0.23112
aF5.1638e-05
aF0.23781
aF5.1246e-05
aF0.24301
aF5.0964e-05
aa(lp285
F0.24505
aF5.0858e-05
aF0.24748
aF5.0735e-05
aF0.25067
aF5.058e-05
aa(lp286
F0.25313
aF5.0464e-05
aF0.25712
aF5.0283e-05
aF0.27067
aF4.9728e-05
aa(lp287
F0.29245
aF4.8993e-05
aF0.31804
aF4.8318e-05
aF0.34156
aF4.7828e-05
aa(lp288
F0.35707
aF4.7557e-05
aF0.36235
aF4.7473e-05
aF0.36749
aF4.7394e-05
aa(lp289
F0.37426
aF4.7295e-05
aF0.37948
aF4.7223e-05
aF0.38105
aF4.7202e-05
aa(lp290
F0.38167
aF4.7193e-05
aF0.38249
aF4.7183e-05
aF0.38311
aF4.7174e-05
aa(lp291
F0.38425
aF4.7159e-05
aF0.3869
aF4.7125e-05
aF0.39077
aF4.7076e-05
aa(lp292
F0.39874
aF4.698e-05
aF0.40168
aF4.6946e-05
aF0.40169
aF4.6946e-05
aa(lp293
F0.4017
aF4.6946e-05
aF0.40171
aF4.6946e-05
aF0.4036
aF4.6925e-05
aa(lp294
F0.40877
aF4.6868e-05
aF0.41149
aF4.6838e-05
aF0.41373
aF4.6815e-05
aa(lp295
F0.41592
aF4.6792e-05
aF0.42106
aF4.674e-05
aF0.42782
aF4.6675e-05
aa(lp296
F0.43304
aF4.6627e-05
aF0.43716
aF4.659e-05
aF0.44467
aF4.6525e-05
aa(lp297
F0.4501
aF4.6481e-05
aF0.4609
aF4.6397e-05
aF0.47797
aF4.6275e-05
aa(lp298
F0.49762
aF4.6151e-05
aF0.51501
aF4.6051e-05
aF0.52629
aF4.5992e-05
aa(lp299
F0.53185
aF4.5964e-05
aF0.54291
aF4.5911e-05
aF0.56036
aF4.5834e-05
aa(lp300
F0.58041
aF4.5754e-05
aF0.59845
aF4.569e-05
aF0.61018
aF4.5651e-05
aa(lp301
F0.61802
aF4.5626e-05
aF0.63151
aF4.5586e-05
aF0.63684
aF4.557e-05
aa(lp302
F0.63778
aF4.5568e-05
aF0.63837
aF4.5566e-05
aF0.63905
aF4.5564e-05
aa(lp303
F0.64049
aF4.556e-05
aF0.64378
aF4.5551e-05
aF0.64801
aF4.554e-05
aa(lp304
F0.6563
aF4.5518e-05
aF0.65966
aF4.5509e-05
aF0.66051
aF4.5507e-05
aa(lp305
F0.66112
aF4.5506e-05
aF0.66195
aF4.5504e-05
aF0.66372
aF4.5499e-05
aa(lp306
F0.66776
aF4.5489e-05
aF0.67034
aF4.5483e-05
aF0.67336
aF4.5476e-05
aa(lp307
F0.67447
aF4.5473e-05
aF0.67448
aF4.5473e-05
aF0.6745
aF4.5473e-05
aa(lp308
F0.67451
aF4.5473e-05
aF0.67671
aF4.5468e-05
aF0.68574
aF4.5447e-05
aa(lp309
F0.70047
aF4.5415e-05
aF0.7185
aF4.5379e-05
aF0.73673
aF4.5345e-05
aa(lp310
F0.75197
aF4.5318e-05
aF0.76148
aF4.5302e-05
aF0.77141
aF4.5287e-05
aa(lp311
F0.80226
aF4.5241e-05
aF0.85157
aF4.5179e-05
aF0.90905
aF4.512e-05
aa(lp312
F0.96154
aF4.5074e-05
aF0.99603
aF4.5049e-05
aF1.0062
aF4.5042e-05
aa(lp313
F1.0113
aF4.5038e-05
aF1.0164
aF4.5035e-05
aF1.0265
aF4.5028e-05
aa(lp314
F1.0418
aF4.5018e-05
aF1.0601
aF4.5008e-05
aF1.0668
aF4.5004e-05
aa(lp315
F1.0669
aF4.5004e-05
aF1.0699
aF4.5002e-05
aF1.078
aF4.4997e-05
aa(lp316
F1.0826
aF4.4995e-05
aF1.0869
aF4.4992e-05
aF1.0923
aF4.499e-05
aa(lp317
F1.1078
aF4.4982e-05
aF1.1337
aF4.4969e-05
aF1.1667
aF4.4954e-05
aa(lp318
F1.2027
aF4.4939e-05
aF1.2368
aF4.4926e-05
aF1.2641
aF4.4916e-05
aa(lp319
F1.2808
aF4.4911e-05
aF1.2874
aF4.4909e-05
aF1.2945
aF4.4906e-05
aa(lp320
F1.3273
aF4.4896e-05
aF1.4114
aF4.4874e-05
aF1.4545
aF4.4864e-05
aa(lp321
F1.4948
aF4.4856e-05
aF1.5357
aF4.4848e-05
aF1.5477
aF4.4845e-05
aa(lp322
F1.5478
aF4.4845e-05
aF1.5578
aF4.4844e-05
aF1.5854
aF4.4839e-05
aa(lp323
F1.5955
aF4.4837e-05
aF1.5956
aF4.4837e-05
aF1.7423
aF4.4816e-05
aa(lp324
F2.1752
aF4.4776e-05
aF2.5309
aF4.4758e-05
aF3.0732
aF4.4742e-05
aa(lp325
F3.5204
aF4.4733e-05
aF4.2059
aF4.4726e-05
aF4.7698
aF4.4722e-05
aa(lp326
F5.636
aF4.4718e-05
aF6.3091
aF4.4716e-05
aF7.2801
aF4.4714e-05
aa(lp327
F7.7333
aF4.4713e-05
aF7.9513
aF4.4713e-05
aF8.3762
aF4.4712e-05
aa(lp328
F9.8024
aF4.4711e-05
aF12.12
aF4.471e-05
aF14.726
aF4.4709e-05
aa(lp329
F16.682
aF4.4709e-05
aF17.782
aF4.4709e-05
aF20.157
aF4.4709e-05
aa(lp330
F24.003
aF4.4709e-05
aF28.342
aF4.4708e-05
aF31.629
aF4.4708e-05
aa(lp331
F33.419
aF4.4708e-05
aF37.173
aF4.4708e-05
aF43.337
aF4.4708e-05
aa(lp332
F50.447
aF4.4708e-05
aF55.957
aF4.4708e-05
aF59.004
aF4.4708e-05
aa(lp333
F65.497
aF4.4708e-05
aF76.456
aF4.4708e-05
aF89.508
aF4.4708e-05
aa(lp334
F99.88
aF4.4708e-05
aF105.7
aF4.4708e-05
aF118.26
aF4.4708e-05
aa(lp335
F139.83
aF4.4708e-05
aF165.91
aF4.4708e-05
aF186.76
aF4.4708e-05
aa(lp336
F198.47
aF4.4708e-05
aF223.71
aF4.4708e-05
aF266.76
aF4.4708e-05
aa(lp337
F317.97
aF4.4708e-05
aF358.16
aF4.4708e-05
aF380.41
aF4.4708e-05
aa(lp338
F427.59
aF4.4708e-05
aF505.61
aF4.4708e-05
aF594.62
aF4.4708e-05
aa(lp339
F661.76
aF4.4708e-05
aF697.98
aF4.4708e-05
aF772.66
aF4.4708e-05
aa(lp340
F890.29
aF4.4708e-05
aF1016.4
aF4.4708e-05
aF1106.3
aF4.4708e-05
aa(lp341
F1153.1
aF4.4708e-05
aF1245.9
aF4.4708e-05
aF1382.7
aF4.4708e-05
aa(lp342
F1517.3
aF4.4708e-05
aF1606.0
aF4.4708e-05
aF1649.8
aF4.4708e-05
aa(lp343
F1731.9
aF4.4708e-05
aF1841.3
aF4.4708e-05
aF1934.6
aF4.4708e-05
aa(lp344
F1987.6
aF4.4708e-05
aF2011.0
aF4.4708e-05
aF2049.3
aF4.4708e-05
aa(lp345
F2086.6
aF4.4708e-05
aF2101.2
aF4.4708e-05
aF2098.2
aF4.4708e-05
aa(lp346
F2092.8
aF4.4708e-05
aF2074.9
aF4.4708e-05
aF2032.2
aF4.4708e-05
aa(lp347
F1972.4
aF4.4708e-05
aF1923.3
aF4.4708e-05
aF1896.1
aF4.4708e-05
aa(lp348
F1839.1
aF4.4708e-05
aF1748.8
aF4.4708e-05
aF1653.6
aF4.4708e-05
aa(lp349
F1587.2
aF4.4708e-05
aF1553.3
aF4.4708e-05
aF1487.3
aF4.4708e-05
aa(lp350
F1392.8
aF4.4708e-05
aF1302.7
aF4.4708e-05
aF1244.5
aF4.4708e-05
aa(lp351
F1216.0
aF4.4708e-05
aF1162.6
aF4.4708e-05
aF1090.6
aF4.4708e-05
aa(lp352
F1026.4
aF4.4708e-05
aF987.11
aF4.4708e-05
aF968.45
aF4.4708e-05
aa(lp353
F934.59
aF4.4708e-05
aF891.31
aF4.4708e-05
aF855.17
aF4.4708e-05
aa(lp354
F834.36
aF4.4708e-05
aF824.89
aF4.4708e-05
aF808.49
aF4.4708e-05
aa(lp355
F789.32
aF4.4708e-05
aF775.46
aF4.4708e-05
aF768.77
aF4.4708e-05
aa(lp356
F766.17
aF4.4708e-05
aF762.55
aF4.4708e-05
aF760.58
aF4.4708e-05
aa(lp357
F762.17
aF4.4708e-05
aF765.09
aF4.4708e-05
aF766.05
aF4.4708e-05
aa.