(lp0
(lp1
F2995.5
aF7.002
aF3130.9
aF6.9883
aF3444.1
aF6.9674
aa(lp2
F4188.5
aF6.9439
aF5564.5
aF6.9217
aF7115.4
aF6.9036
aa(lp3
F8044.3
aF6.4285
aF8376.0
aF5.9954
aF8469.0
aF5.7861
aa(lp4
F8494.3
aF5.499
aF8473.0
aF5.3851
aF8464.0
aF5.3491
aa(lp5
F8445.5
aF5.2847
aF8371.8
aF5.0976
aF8222.0
aF4.8655
aa(lp6
F8098.3
aF4.6964
aF8056.1
aF4.6415
aF8032.7
aF4.6115
aa(lp7
F8000.3
aF4.5708
aF7927.7
aF4.4904
aF7895.7
aF4.4562
aa(lp8
F7881.3
aF4.4419
aF7749.5
aF4.2861
aF7651.6
aF3.9058
aa(lp9
F7636.3
aF3.7686
aF7635.6
aF3.7454
aF7628.6
aF3.6849
aa(lp10
F7626.7
aF3.4897
aF7679.8
aF3.2263
aF7808.2
aF2.9871
aa(lp11
F7928.1
aF2.8363
aF7973.5
aF2.7876
aF8004.8
aF2.7558
aa(lp12
F8019.5
aF2.7414
aF8027.6
aF2.7336
aF8036.5
aF2.725
aa(lp13
F8052.9
aF2.7095
aF8096.0
aF2.6702
aF8204.1
aF2.581
aa(lp14
F8302.1
aF2.5103
aF8451.8
aF2.4075
aF8567.6
aF2.3321
aa(lp15
F8737.1
aF2.2291
aF8798.3
aF2.1907
aF8807.8
aF2.1848
aa(lp16
F8850.6
aF2.158
aF8955.7
aF2.0923
aF9000.2
aF2.0648
aa(lp17
F9018.9
aF2.0538
aF9042.6
aF2.0399
aF9087.8
aF2.0129
aa(lp18
F9110.5
aF1.9993
aF9127.9
aF1.9888
aF9246.7
aF1.9154
aa(lp19
F9353.0
aF1.7406
aF9355.8
aF1.6785
aF9356.4
aF1.67
aa(lp20
F9356.9
aF1.6623
aF9357.9
aF1.6497
aF9363.2
aF1.599
aa(lp21
F9358.9
aF1.4807
aF9361.4
aF1.4377
aF9362.9
aF1.4307
aa(lp22
F9368.9
aF1.4105
aF9432.2
aF1.3637
aF9470.6
aF1.3411
aa(lp23
F9499.8
aF1.3252
aF9632.5
aF1.2788
aF10003.0
aF1.1757
aa(lp24
F10156.0
aF1.1386
aF10179.0
aF1.1334
aF10216.0
aF1.1249
aa(lp25
F10297.0
aF1.1071
aF10401.0
aF5.9495
aF10491.0
aF5.7055
aa(lp26
F10401.0
aF5.5448
aF10260.0
aF5.2982
aF10499.0
aF5.0651
aa(lp27
F10575.0
aF4.9953
aF10588.0
aF4.9834
aF10602.0
aF4.9705
aa(lp28
F10628.0
aF4.947
aF10768.0
aF4.8245
aF11176.0
aF4.5294
aa(lp29
F11349.0
aF4.4196
aF11381.0
aF4.3993
aF11494.0
aF4.3295
aa(lp30
F11762.0
aF4.1647
aF11868.0
aF4.0996
aF11899.0
aF4.0811
aa(lp31
F11982.0
aF4.0308
aF12178.0
aF3.9148
aF12281.0
aF3.8545
aa(lp32
F12371.0
aF3.8034
aF12415.0
aF3.7787
aF12445.0
aF3.762
aa(lp33
F12473.0
aF3.7468
aF12517.0
aF3.722
aF12544.0
aF3.707
aa(lp34
F12574.0
aF3.6907
aF12597.0
aF3.6777
aF12615.0
aF3.6677
aa(lp35
F12630.0
aF3.6596
aF5288.4
aF3.5897
aF5475.2
aF3.4145
aa(lp36
F5542.5
aF3.3477
aF5556.7
aF3.3333
aF5584.5
aF3.3046
aa(lp37
F5643.6
aF3.2416
aF5555.2
aF3.2139
aF5475.2
aF3.2002
aa(lp38
F5239.8
aF3.1606
aF4666.5
aF3.0685
aF3565.8
aF2.9066
aa(lp39
F3834.6
aF2.7687
aF3617.3
aF2.7105
aF3635.0
aF2.6368
aa(lp40
F3644.5
aF2.5821
aF3335.6
aF2.5658
aF2899.3
aF2.5607
aa(lp41
F2426.9
aF2.5322
aF2360.6
aF2.4377
aF2262.4
aF2.3278
aa(lp42
F2160.8
aF2.2127
aF2113.6
aF2.1548
aF2076.7
aF2.1078
aa(lp43
F2062.7
aF2.0894
aF2032.3
aF2.0855
aF1874.8
aF2.0303
aa(lp44
F1776.0
aF1.8923
aF1743.5
aF1.8398
aF1301.8
aF1.8262
aa(lp45
F1281.6
aF1.7909
aF1243.0
aF1.7111
aF1235.3
aF1.6808
aa(lp46
F1234.7
aF1.6748
aF1230.6
aF1.654
aF1223.5
aF1.6044
aa(lp47
F1221.5
aF1.5827
aF1220.8
aF1.5715
aF1236.8
aF1.4652
aa(lp48
F1321.4
aF1.2258
aF1366.4
aF1.148
aF1361.6
aF1.1405
aa(lp49
F1364.6
aF1.1345
aF1369.1
aF1.1253
aF1383.2
aF1.0983
aa(lp50
F3007.0
aF1.0369
aF2830.5
aF1.0144
aF2726.1
aF1.0112
aa(lp51
F2649.8
aF1.0088
aF2545.4
aF1.0057
aF2469.0
aF1.0034
aa(lp52
F2364.6
aF1.0002
aF1734.5
aF0.98146
aF1347.6
aF0.93535
aa(lp53
F1355.9
aF0.91813
aF1357.3
aF0.91532
aF1359.6
aF0.91071
aa(lp54
F1364.6
aF0.90101
aF1367.0
aF0.8965
aF1368.4
aF0.89377
aa(lp55
F1371.7
aF0.88781
aF1379.1
aF0.87444
aF1382.5
aF0.86865
aa(lp56
F1384.0
aF0.86603
aF1385.6
aF0.8634
aF1388.3
aF0.85885
aa(lp57
F1389.5
aF0.85673
aF1390.2
aF0.85544
aF1393.2
aF0.85004
aa(lp58
F1401.6
aF0.83676
aF1413.9
aF0.81801
aF1440.1
aF0.78138
aa(lp59
F1444.1
aF0.76767
aF1428.3
aF0.76543
aF1445.9
aF0.74729
aa(lp60
F1493.3
aF0.70246
aF1200.7
aF0.68655
aF353.19
aF0.68558
aa(lp61
F40.731
aF0.67016
aF35.773
aF0.63109
aF32.099
aF0.5965
aa(lp62
F27.51
aF0.54357
aF26.166
aF0.52519
aF26.07
aF0.52381
aa(lp63
F16.594
aF0.51797
aF16.285
aF0.51036
aF15.987
aF0.50238
aa(lp64
F15.72
aF0.49457
aF15.54
aF0.4893
aF15.281
aF0.48117
aa(lp65
F15.182
aF0.47779
aF15.148
aF0.47657
aF14.917
aF0.46763
aa(lp66
F14.381
aF0.43743
aF13.736
aF0.40167
aF13.46
aF0.37676
aa(lp67
F13.41
aF0.36981
aF10.687
aF0.36804
aF10.514
aF0.36147
aa(lp68
F10.036
aF0.342
aF9.6573
aF0.32385
aF9.5616
aF0.31853
aa(lp69
F9.5486
aF0.3178
aF9.4407
aF0.31161
aF9.7611
aF0.29613
aa(lp70
F9.9264
aF0.29047
aF9.9459
aF0.28982
aF10.101
aF0.28478
aa(lp71
F10.52
aF0.27216
aF10.096
aF0.26746
aF8.9344
aF0.26696
aa(lp72
F3.6635
aF0.26301
aF4.0137
aF0.25323
aF4.1515
aF0.24957
aa(lp73
F4.1719
aF0.24904
aF4.1846
aF0.24203
aF3.8562
aF0.2246
aa(lp74
F3.7344
aF0.2183
aF2.8214
aF0.2174
aF2.8266
aF0.21572
aa(lp75
F2.8313
aF0.21421
aF2.8328
aF0.21377
aF2.848
aF0.20933
aa(lp76
F2.8924
aF0.19818
aF2.9107
aF0.19414
aF2.9125
aF0.19375
aa(lp77
F2.9286
aF0.19046
aF2.9168
aF0.18216
aF2.9121
aF0.17899
aa(lp78
F2.6649
aF0.17829
aF2.6526
aF0.17557
aF2.6232
aF0.16907
aa(lp79
F2.6122
aF0.16665
aF2.6108
aF0.16633
aF2.6069
aF0.16547
aa(lp80
F2.5953
aF0.16294
aF2.584
aF0.16046
aF2.5743
aF0.15837
aa(lp81
F2.5508
aF0.15334
aF2.521
aF0.14707
aF2.4989
aF0.14249
aa(lp82
F2.4843
aF0.13905
aF2.4597
aF0.13312
aF2.4505
aF0.13095
aa(lp83
F2.4495
aF0.13071
aF2.4462
aF0.12994
aF1.1168
aF0.1281
aa(lp84
F1.1186
aF0.12735
aF1.1191
aF0.12712
aF1.1304
aF0.12255
aa(lp85
F1.1433
aF0.11127
aF1.1475
aF0.10734
aF1.1479
aF0.10697
aa(lp86
F1.1495
aF0.10554
aF1.1552
aF0.10084
aF1.1629
aF0.095103
aa(lp87
F1.1734
aF0.090984
aF1.1763
aF0.089898
aF1.1765
aF0.089826
aa(lp88
F1.1782
aF0.089224
aF1.1842
aF0.087108
aF1.192
aF0.084443
aa(lp89
F1.1981
aF0.08247
aF1.201
aF0.081526
aF1.2057
aF0.080076
aa(lp90
F1.2103
aF0.078659
aF1.2118
aF0.078208
aF1.2122
aF0.078086
aa(lp91
F1.2134
aF0.077731
aF1.2163
aF0.076889
aF1.2175
aF0.076541
aa(lp92
F1.2179
aF0.076422
aF1.2203
aF0.075728
aF1.2288
aF0.073346
aa(lp93
F1.2398
aF0.070379
aF1.2483
aF0.068209
aF1.2508
aF0.067589
aa(lp94
F1.2515
aF0.067437
aF1.2554
aF0.066484
aF1.2655
aF0.064109
aa(lp95
F1.2694
aF0.063232
aF1.2698
aF0.063139
aF1.2712
aF0.062817
aa(lp96
F0.86412
aF0.062039
aF0.86482
aF0.061741
aF0.86492
aF0.061695
aa(lp97
F0.86716
aF0.060747
aF0.87318
aF0.058291
aF0.87545
aF0.057393
aa(lp98
F0.87567
aF0.057311
aF0.87679
aF0.056873
aF0.88073
aF0.055375
aa(lp99
F0.88583
aF0.053494
aF0.88971
aF0.052108
aF0.89085
aF0.05172
aa(lp100
F0.89109
aF0.051648
aF0.89281
aF0.051125
aF0.89728
aF0.049799
aa(lp101
F0.83464
aF0.049323
aF0.83465
aF0.049318
aF0.83473
aF0.049289
aa(lp102
F0.83601
aF0.048843
aF0.84169
aF0.047719
aF0.84482
aF0.047293
aa(lp103
F0.84529
aF0.047229
aF0.84903
aF0.046726
aF0.85877
aF0.045449
aa(lp104
F0.86251
aF0.044971
aF0.86299
aF0.04491
aF0.86551
aF0.044592
aa(lp105
F0.87137
aF0.043795
aF0.8709
aF0.043497
aF0.87083
aF0.043468
aa(lp106
F0.85172
aF0.043394
aF0.84405
aF0.043221
aF0.84378
aF0.043116
aa(lp107
F0.84349
aF0.043002
aF0.84332
aF0.042939
aF0.84318
aF0.042882
aa(lp108
F0.84213
aF0.042478
aF0.83843
aF0.041075
aF0.83363
aF0.039333
aa(lp109
F0.82991
aF0.03806
aF0.82836
aF0.037554
aF0.82685
aF0.037077
aa(lp110
F0.78737
aF0.036809
aF0.78895
aF0.036439
aF0.79128
aF0.035905
aa(lp111
F0.79359
aF0.03538
aF0.79517
aF0.035028
aF0.79677
aF0.034676
aa(lp112
F0.80124
aF0.033714
aF0.80597
aF0.032508
aF0.80956
aF0.03162
aa(lp113
F0.81145
aF0.031201
aF0.81394
aF0.030693
aF0.81616
aF0.030248
aa(lp114
F0.81975
aF0.029546
aF0.82246
aF0.029027
aF0.8263
aF0.02831
aa(lp115
F0.82783
aF0.028029
aF0.82643
aF0.027963
aF0.8281
aF0.027686
aa(lp116
F0.83226
aF0.027011
aF0.83459
aF0.026641
aF0.83737
aF0.026208
aa(lp117
F0.84014
aF0.025783
aF0.84185
aF0.025526
aF0.84435
aF0.025161
aa(lp118
F0.84533
aF0.025019
aF0.84553
aF0.02499
aF0.84618
aF0.024896
aa(lp119
F0.84777
aF0.024669
aF0.84846
aF0.024571
aF0.84876
aF0.024529
aa(lp120
F0.84975
aF0.024389
aF0.85305
aF0.02393
aF0.85734
aF0.023348
aa(lp121
F0.86061
aF0.022914
aF0.86156
aF0.022791
aF0.86175
aF0.022765
aa(lp122
F0.8634
aF0.022552
aF0.86782
aF0.022006
aF0.87122
aF0.021661
aa(lp123
F0.87526
aF0.021259
aF0.87682
aF0.021106
aF0.87705
aF0.021083
aa(lp124
F0.879
aF0.020893
aF0.88407
aF0.020409
aF0.887
aF0.020135
aa(lp125
F0.88993
aF0.019865
aF0.89323
aF0.019566
aF0.89929
aF0.019028
aa(lp126
F0.90205
aF0.018788
aF0.90355
aF0.018659
aF0.90419
aF0.018605
aa(lp127
F0.90442
aF0.018585
aF0.9056
aF0.018485
aF0.91006
aF0.018117
aa(lp128
F0.91709
aF0.017562
aF0.92498
aF0.016961
aF0.93191
aF0.01645
aa(lp129
F0.93634
aF0.016133
aF0.93849
aF0.015981
aF0.94243
aF0.015709
aa(lp130
F0.94755
aF0.015362
aF0.95145
aF0.015102
aF0.95257
aF0.015028
aa(lp131
F0.9528
aF0.015013
aF0.9531
aF0.014994
aF0.95367
aF0.014957
aa(lp132
F0.95396
aF0.014937
aF0.95419
aF0.014922
aF0.95524
aF0.014855
aa(lp133
F0.95908
aF0.014608
aF0.96504
aF0.014234
aF0.97164
aF0.013826
aa(lp134
F0.9774
aF0.013476
aF0.98108
aF0.013258
aF0.9831
aF0.01314
aa(lp135
F0.98723
aF0.012902
aF0.99311
aF0.012599
aF0.9972
aF0.012373
aa(lp136
F0.99924
aF0.012262
aF1.0019
aF0.012124
aF1.0029
aF0.012069
aa(lp137
F1.0031
aF0.012058
aF1.0042
aF0.012002
aF1.0081
aF0.011798
aa(lp138
F1.0143
aF0.011488
aF1.0211
aF0.011151
aF1.0271
aF0.010863
aa(lp139
F1.031
aF0.010682
aF1.033
aF0.010587
aF1.0372
aF0.010397
aa(lp140
F1.0427
aF0.010155
aF1.0468
aF0.0099752
aF1.049
aF0.0098808
aa(lp141
F1.0531
aF0.0097066
aF1.0584
aF0.0094852
aF1.0625
aF0.0093198
aa(lp142
F1.0643
aF0.0092479
aF1.0662
aF0.0091708
aF1.0685
aF0.0090769
aa(lp143
F1.0731
aF0.0088999
aF1.0766
aF0.0087633
aF1.0817
aF0.008568
aa(lp144
F1.0837
aF0.0084952
aF1.0839
aF0.0084879
aF1.0848
aF0.0084531
aa(lp145
F1.0872
aF0.0083663
aF1.089
aF0.0082988
aF1.0927
aF0.0081654
aa(lp146
F1.0975
aF0.0079953
aF1.1011
aF0.0078679
aF1.1026
aF0.0078139
aa(lp147
F1.1043
aF0.0077581
aF1.105
aF0.0077343
aF1.1052
aF0.0077245
aa(lp148
F1.1056
aF0.0077126
aF1.1062
aF0.00769
aF1.1066
aF0.0076794
aa(lp149
F1.1067
aF0.0076729
aF1.1078
aF0.0076365
aF1.1105
aF0.0075444
aa(lp150
F1.1119
aF0.0075007
aF1.1127
aF0.0074726
aF1.1131
aF0.00746
aa(lp151
F1.1133
aF0.0074538
aF1.1148
aF0.0074018
aF1.1189
aF0.0072679
aa(lp152
F1.1205
aF0.0072175
aF1.1207
aF0.0072116
aF1.1212
aF0.0071941
aa(lp153
F1.1225
aF0.0071527
aF1.1231
aF0.0071355
aF1.1233
aF0.0071296
aa(lp154
F1.1252
aF0.0070698
aF1.1301
aF0.0069151
aF1.132
aF0.0068576
aa(lp155
F1.1322
aF0.006852
aF1.1358
aF0.0067428
aF1.1453
aF0.0064605
aa(lp156
F1.1522
aF0.0062634
aF1.1613
aF0.0060062
aF1.1647
aF0.0059137
aa(lp157
F1.1649
aF0.0059091
aF1.1658
aF0.0058835
aF1.1691
aF0.005795
aa(lp158
F1.1733
aF0.0056821
aF1.1765
aF0.0055974
aF1.1785
aF0.0055439
aa(lp159
F1.183
aF0.0054288
aF1.1887
aF0.0052832
aF1.193
aF0.0051749
aa(lp160
F1.1953
aF0.0051189
aF1.1983
aF0.0050443
aF1.2
aF0.0050033
aa(lp161
F1.2023
aF0.0049474
aF1.2059
aF0.0048617
aF1.2099
aF0.0047672
aa(lp162
F1.2134
aF0.0046855
aF1.2156
aF0.004634
aF1.2162
aF0.00462
aa(lp163
F1.2163
aF0.0046167
aF1.2176
aF0.0045864
aF1.221
aF0.0045083
aa(lp164
F1.222
aF0.004479
aF1.2215
aF0.0044757
aF1.2222
aF0.0044567
aa(lp165
F1.2244
aF0.0044085
aF1.2252
aF0.0043898
aF1.2253
aF0.0043866
aa(lp166
F1.2264
aF0.0043621
aF1.2303
aF0.0042757
aF1.2351
aF0.0041662
aa(lp167
F1.2388
aF0.0040847
aF1.2397
aF0.0040623
aF1.2397
aF0.0040594
aa(lp168
F1.2404
aF0.0040428
aF1.2431
aF0.0039852
aF1.2465
aF0.0039116
aa(lp169
F1.2491
aF0.0038563
aF1.2499
aF0.0038408
aF1.25
aF0.0038381
aa(lp170
F1.2508
aF0.0038211
aF1.2536
aF0.0037615
aF1.2573
aF0.0036856
aa(lp171
F1.26
aF0.0036287
aF1.2615
aF0.0035988
aF1.2642
aF0.0035437
aa(lp172
F1.2676
aF0.0034732
aF1.2702
aF0.0034205
aF1.2716
aF0.0033928
aa(lp173
F1.2741
aF0.0033416
aF1.2774
aF0.0032762
aF1.2799
aF0.0032272
aa(lp174
F1.2813
aF0.0032015
aF1.2837
aF0.0031539
aF1.2868
aF0.0030931
aa(lp175
F1.2892
aF0.0030476
aF1.2902
aF0.0030271
aF1.2919
aF0.0029955
aa(lp176
F1.294
aF0.002955
aF1.2955
aF0.0029244
aF1.296
aF0.0029156
aa(lp177
F1.2961
aF0.0029137
aF1.2969
aF0.0028975
aF1.2991
aF0.0028557
aa(lp178
F1.3001
aF0.0028363
aF1.3007
aF0.0028244
aF1.3013
aF0.0028125
aa(lp179
F1.3023
aF0.0027918
aF1.3038
aF0.0027629
aF1.3067
aF0.0027054
aa(lp180
F1.3082
aF0.0026763
aF1.3094
aF0.0026536
aF1.3099
aF0.0026447
aa(lp181
F1.31
aF0.002643
aF1.3105
aF0.0026324
aF1.3124
aF0.0025953
aa(lp182
F1.3131
aF0.0025479
aF1.3148
aF0.0025122
aF1.3153
aF0.0025023
aa(lp183
F1.3153
aF0.0025007
aF1.3158
aF0.0024908
aF1.3175
aF0.0024562
aa(lp184
F1.3195
aF0.002412
aF1.3211
aF0.0023788
aF1.3219
aF0.0023613
aa(lp185
F1.3233
aF0.002329
aF1.3252
aF0.0022876
aF1.3266
aF0.0022566
aa(lp186
F1.3273
aF0.0022403
aF1.3286
aF0.00221
aF1.3302
aF0.0021714
aa(lp187
F1.3314
aF0.0021423
aF1.3324
aF0.0021194
aF1.334
aF0.0020783
aa(lp188
F1.3349
aF0.0020553
aF1.3357
aF0.0020331
aF1.3361
aF0.0020235
aa(lp189
F1.3362
aF0.0020194
aF1.3363
aF0.0020174
aF1.3363
aF0.0020162
aa(lp190
F1.3369
aF0.002002
aF1.3382
aF0.001965
aF1.3387
aF0.0019515
aa(lp191
F1.3387
aF0.0019509
aF1.3389
aF0.0019428
aF1.3397
aF0.0019216
aa(lp192
F1.3399
aF0.0019135
aF1.34
aF0.0019124
aF1.3402
aF0.0019045
aa(lp193
F1.3408
aF0.0018843
aF1.3415
aF0.0018613
aF1.3428
aF0.0018192
aa(lp194
F1.3434
aF0.0017939
aF1.3442
aF0.0017662
aF1.3445
aF0.0017542
aa(lp195
F1.3446
aF0.0017488
aF1.3446
aF0.0017464
aF1.3447
aF0.0017454
aa(lp196
F1.3449
aF0.0017377
aF1.3453
aF0.0017177
aF1.3455
aF0.0017105
aa(lp197
F1.3455
aF0.0017104
aF1.3455
aF0.0017104
aF1.3457
aF0.0016975
aa(lp198
F1.3464
aF0.0016631
aF1.3466
aF0.0016503
aF1.3466
aF0.0016494
aa(lp199
F1.3466
aF0.0016488
aF1.3466
aF0.0016478
aF1.3467
aF0.0016472
aa(lp200
F1.3467
aF0.0016463
aF1.3467
aF0.0016456
aF1.3467
aF0.0016447
aa(lp201
F1.3467
aF0.0016419
aF1.3468
aF0.0016351
aF1.3469
aF0.0016323
aa(lp202
F1.3469
aF0.0016314
aF1.347
aF0.0016254
aF1.3472
aF0.0016103
aa(lp203
F1.3473
aF0.0016009
aF1.3474
aF0.0015904
aF1.3475
aF0.0015864
aa(lp204
F1.3475
aF0.001586
aF1.3476
aF0.0015752
aF1.3478
aF0.0015467
aa(lp205
F1.3479
aF0.0015246
aF1.3479
aF0.001481
aF1.3475
aF0.0014266
aa(lp206
F1.3468
aF0.0013866
aF1.3463
aF0.0013627
aF1.345
aF0.0013137
aa(lp207
F1.3426
aF0.0012532
aF1.3404
aF0.0012092
aF1.3392
aF0.0011907
aa(lp208
F1.3375
aF0.0011647
aF1.3349
aF0.0011318
aF1.3328
aF0.0011074
aa(lp209
F1.3321
aF0.0011008
aF1.3321
aF0.0011002
aF1.3316
aF0.0010953
aa(lp210
F1.3297
aF0.0010765
aF1.3265
aF0.0010481
aF1.3226
aF0.0010171
aa(lp211
F1.3188
aF0.0009907
aF1.3163
aF0.00097421
aF1.3145
aF0.00096316
aa(lp212
F1.3097
aF0.00093566
aF1.3017
aF0.00089484
aF1.2918
aF0.00085149
aa(lp213
F1.2822
aF0.00081537
aF1.2756
aF0.00079324
aF1.2739
aF0.00078772
aa(lp214
F1.2738
aF0.00078737
aF1.2714
aF0.00077998
aF1.2649
aF0.00076058
aa(lp215
F1.2606
aF0.00074839
aF1.2532
aF0.00072912
aF1.2432
aF0.00070496
aa(lp216
F1.2352
aF0.00068715
aF1.2312
aF0.00067861
aF1.2241
aF0.00066426
aa(lp217
F1.2145
aF0.00064613
aF1.207
aF0.00063268
aF1.2016
aF0.00062342
aa(lp218
F1.1922
aF0.00060811
aF1.1809
aF0.00059095
aF1.1589
aF0.00056053
aa(lp219
F1.1457
aF0.00054403
aF1.1323
aF0.00052836
aF1.1273
aF0.0005227
aa(lp220
F1.1271
aF0.0005225
aF1.1216
aF0.00051656
aF1.1066
aF0.00050098
aa(lp221
F1.0972
aF0.00049183
aF1.0819
aF0.00047769
aF1.0574
aF0.00045673
aa(lp222
F1.0289
aF0.00043454
aF1.0026
aF0.00041611
aF0.98531
aF0.00040484
aa(lp223
F0.97599
aF0.00039901
aF0.95715
aF0.00038771
aF0.93207
aF0.00037362
aa(lp224
F0.91241
aF0.0003633
aF0.90702
aF0.00036057
aF0.90677
aF0.00036045
aa(lp225
F0.89985
aF0.00035701
aF0.8721
aF0.0003438
aF0.82789
aF0.00032456
aa(lp226
F0.77622
aF0.00030461
aF0.72954
aF0.00028837
aF0.69921
aF0.00027859
aa(lp227
F0.69144
aF0.0002762
aF0.69117
aF0.00027612
aF0.68887
aF0.00027542
aa(lp228
F0.68006
aF0.00027276
aF0.66632
aF0.0002687
aF0.65079
aF0.00026421
aa(lp229
F0.63702
aF0.00026033
aF0.62818
aF0.00025788
aF0.61905
aF0.00025539
aa(lp230
F0.60013
aF0.00025034
aF0.58924
aF0.0002475
aF0.57431
aF0.00024371
aa(lp231
F0.55464
aF0.00023889
aF0.53963
aF0.00023529
aF0.52876
aF0.00023273
aa(lp232
F0.50305
aF0.00022681
aF0.4697
aF0.00021941
aF0.44406
aF0.00021399
aa(lp233
F0.42705
aF0.0002105
aF0.39957
aF0.00020498
aF0.38951
aF0.00020299
aa(lp234
F0.38923
aF0.00020294
aF0.3875
aF0.0002026
aF0.38306
aF0.00020173
aa(lp235
F0.38134
aF0.00020139
aF0.38107
aF0.00020134
aF0.38033
aF0.0002012
aa(lp236
F0.37859
aF0.00020086
aF0.37784
aF0.00020071
aF0.37773
aF0.00020069
aa(lp237
F0.3777
aF0.00020068
aF0.37516
aF0.00020019
aF0.36579
aF0.00019837
aa(lp238
F0.35363
aF0.00019605
aF0.34437
aF0.00019429
aF0.33699
aF0.00019291
aa(lp239
F0.32358
aF0.00019046
aF0.31278
aF0.00018849
aF0.29674
aF0.00018559
aa(lp240
F0.2881
aF0.00018404
aF0.27749
aF0.00018214
aF0.26385
aF0.00017971
aa(lp241
F0.25353
aF0.00017788
aF0.24537
aF0.00017643
aF0.2238
aF0.00017266
aa(lp242
F0.19145
aF0.00016704
aF0.15718
aF0.00016103
aF0.12947
aF0.000156
aa(lp243
F0.11312
aF0.0001529
aF0.10923
aF0.00015214
aF0.10906
aF0.0001521
aa(lp244
F0.10538
aF0.00015137
aF0.092554
aF0.0001487
aF0.078022
aF0.00014533
aa(lp245
F0.069089
aF0.00014284
aF0.059512
aF0.00014153
aF0.06018
aF0.00013914
aa(lp246
F0.06106
aF0.00013612
aF0.061739
aF0.00013388
aF0.062107
aF0.0001327
aa(lp247
F0.062805
aF0.0001305
aF0.063726
aF0.00012772
aF0.064439
aF0.00012566
aa(lp248
F0.064632
aF0.00012511
aF0.064641
aF0.00012509
aF0.064875
aF0.00012443
aa(lp249
F0.065745
aF0.00012206
aF0.066891
aF0.00011909
aF0.067778
aF0.0001169
aa(lp250
F0.068123
aF0.00011607
aF0.06856
aF0.00011504
aF0.069241
aF0.00011347
aa(lp251
F0.070015
aF0.00011174
aF0.070705
aF0.00011025
aF0.071149
aF0.00010932
aa(lp252
F0.071457
aF0.00010868
aF0.072197
aF0.00010719
aF0.07317
aF0.00010529
aa(lp253
F0.073921
aF0.00010388
aF0.074525
aF0.00010283
aF0.075609
aF0.000101
aa(lp254
F0.076012
aF0.00010034
aF0.076021
aF0.00010033
aF0.076359
aF9.9782e-05
aa(lp255
F0.077274
aF9.8336e-05
aF0.077774
aF9.7566e-05
aF0.078434
aF9.6572e-05
aa(lp256
F0.079465
aF9.5062e-05
aF0.080637
aF9.3415e-05
aF0.08168
aF9.2004e-05
aa(lp257
F0.082352
aF9.1122e-05
aF0.082746
aF9.0615e-05
aF0.083656
aF8.947e-05
aa(lp258
F0.085081
aF8.7747e-05
aF0.086703
aF8.5884e-05
aF0.088151
aF8.4305e-05
aa(lp259
F0.089084
aF8.3325e-05
aF0.089321
aF8.3081e-05
aF0.089332
aF8.3071e-05
aa(lp260
F0.089524
aF8.2874e-05
aF0.090284
aF8.2109e-05
aF0.091473
aF8.095e-05
aa(lp261
F0.092823
aF7.9684e-05
aF0.094031
aF7.8601e-05
aF0.09481
aF7.7924e-05
aa(lp262
F0.095197
aF7.7594e-05
aF0.095973
aF7.6943e-05
aF0.097187
aF7.5955e-05
aa(lp263
F0.098565
aF7.4876e-05
aF0.099791
aF7.3951e-05
aF0.10058
aF7.3372e-05
aa(lp264
F0.10078
aF7.3226e-05
aF0.10079
aF7.3218e-05
aF0.10104
aF7.3037e-05
aa(lp265
F0.10175
aF7.2537e-05
aF0.10332
aF7.1458e-05
aF0.10491
aF7.0419e-05
aa(lp266
F0.10584
aF6.9824e-05
aF0.10714
aF6.9023e-05
aF0.10802
aF6.8497e-05
aa(lp267
F0.10889
aF6.7992e-05
aF0.10947
aF6.7659e-05
aF0.11004
aF6.7339e-05
aa(lp268
F0.11081
aF6.6913e-05
aF0.11148
aF6.6544e-05
aF0.11247
aF6.6015e-05
aa(lp269
F0.11357
aF6.5445e-05
aF0.11557
aF6.4442e-05
aF0.1163
aF6.4083e-05
aa(lp270
F0.11631
aF6.408e-05
aF0.11631
aF6.4079e-05
aF0.11636
aF6.4052e-05
aa(lp271
F0.11651
aF6.3978e-05
aF0.11657
aF6.3949e-05
aF0.11658
aF6.3943e-05
aa(lp272
F0.11699
aF6.3735e-05
aF0.11812
aF6.3183e-05
aF0.11855
aF6.2982e-05
aa(lp273
F0.11856
aF6.2977e-05
aF0.11898
aF6.2779e-05
aF0.12055
aF6.2061e-05
aa(lp274
F0.12261
aF6.1161e-05
aF0.1242
aF6.0499e-05
aF0.12507
aF6.0149e-05
aa(lp275
F0.12673
aF5.9498e-05
aF0.12893
aF5.8683e-05
aF0.13061
aF5.8083e-05
aa(lp276
F0.13216
aF5.7552e-05
aF0.13662
aF5.6128e-05
aF0.14358
aF5.4145e-05
aa(lp277
F0.15161
aF5.22e-05
aF0.15894
aF5.07e-05
aF0.16374
aF4.9833e-05
aa(lp278
F0.16621
aF4.9419e-05
aF0.17134
aF4.8623e-05
aF0.17952
aF4.7503e-05
aa(lp279
F0.18903
aF4.6392e-05
aF0.19768
aF4.5526e-05
aF0.20342
aF4.5021e-05
aa(lp280
F0.20748
aF4.469e-05
aF0.21473
aF4.415e-05
aF0.21895
aF4.3861e-05
aa(lp281
F0.22315
aF4.359e-05
aF0.22543
aF4.3449e-05
aF0.22745
aF4.3328e-05
aa(lp282
F0.22918
aF4.3227e-05
aF0.23192
aF4.3071e-05
aF0.23293
aF4.3015e-05
aa(lp283
F0.23383
aF4.2966e-05
aF0.23628
aF4.2834e-05
aF0.2386
aF4.2714e-05
aa(lp284
F0.24394
aF4.245e-05
aF0.25099
aF4.2127e-05
aF0.25646
aF4.1894e-05
aa(lp285
F0.25861
aF4.1807e-05
aF0.26117
aF4.1706e-05
aF0.26454
aF4.1578e-05
aa(lp286
F0.26713
aF4.1482e-05
aF0.27132
aF4.1334e-05
aF0.28559
aF4.0876e-05
aa(lp287
F0.30852
aF4.0271e-05
aF0.33546
aF3.9715e-05
aF0.36023
aF3.9312e-05
aa(lp288
F0.37655
aF3.9088e-05
aF0.3821
aF3.9019e-05
aF0.38751
aF3.8954e-05
aa(lp289
F0.39463
aF3.8873e-05
aF0.40013
aF3.8813e-05
aF0.40177
aF3.8796e-05
aa(lp290
F0.40243
aF3.8789e-05
aF0.40329
aF3.878e-05
aF0.40395
aF3.8773e-05
aa(lp291
F0.40514
aF3.8761e-05
aF0.40793
aF3.8733e-05
aF0.412
aF3.8692e-05
aa(lp292
F0.42039
aF3.8613e-05
aF0.42348
aF3.8585e-05
aF0.42349
aF3.8585e-05
aa(lp293
F0.4235
aF3.8585e-05
aF0.42351
aF3.8585e-05
aF0.4255
aF3.8567e-05
aa(lp294
F0.43094
aF3.852e-05
aF0.4338
aF3.8496e-05
aF0.43615
aF3.8477e-05
aa(lp295
F0.43846
aF3.8458e-05
aF0.44387
aF3.8416e-05
aF0.45098
aF3.8362e-05
aa(lp296
F0.45646
aF3.8322e-05
aF0.4608
aF3.8292e-05
aF0.4687
aF3.8238e-05
aa(lp297
F0.47441
aF3.8202e-05
aF0.48577
aF3.8132e-05
aF0.50372
aF3.8033e-05
aa(lp298
F0.52438
aF3.793e-05
aF0.54263
aF3.7848e-05
aF0.55448
aF3.7799e-05
aa(lp299
F0.56032
aF3.7776e-05
aF0.57192
aF3.7732e-05
aF0.59024
aF3.7669e-05
aa(lp300
F0.61128
aF3.7603e-05
aF0.63022
aF3.755e-05
aF0.64253
aF3.7518e-05
aa(lp301
F0.65075
aF3.7498e-05
aF0.66491
aF3.7464e-05
aF0.6705
aF3.7452e-05
aa(lp302
F0.67149
aF3.745e-05
aF0.67211
aF3.7448e-05
aF0.67282
aF3.7447e-05
aa(lp303
F0.67434
aF3.7443e-05
aF0.67779
aF3.7436e-05
aF0.68222
aF3.7427e-05
aa(lp304
F0.69092
aF3.7409e-05
aF0.69445
aF3.7402e-05
aF0.69534
aF3.74e-05
aa(lp305
F0.69598
aF3.7399e-05
aF0.69685
aF3.7397e-05
aF0.69871
aF3.7393e-05
aa(lp306
F0.70295
aF3.7385e-05
aF0.70566
aF3.738e-05
aF0.70882
aF3.7374e-05
aa(lp307
F0.70999
aF3.7372e-05
aF0.71
aF3.7372e-05
aF0.71002
aF3.7372e-05
aa(lp308
F0.71003
aF3.7372e-05
aF0.71235
aF3.7368e-05
aF0.72182
aF3.735e-05
aa(lp309
F0.73728
aF3.7324e-05
aF0.75619
aF3.7294e-05
aF0.77533
aF3.7266e-05
aa(lp310
F0.79133
aF3.7244e-05
aF0.8013
aF3.7231e-05
aF0.81172
aF3.7218e-05
aa(lp311
F0.84409
aF3.7181e-05
aF0.89583
aF3.713e-05
aF0.95615
aF3.7081e-05
aa(lp312
F1.0112
aF3.7043e-05
aF1.0474
aF3.7022e-05
aF1.0581
aF3.7016e-05
aa(lp313
F1.0634
aF3.7014e-05
aF1.0688
aF3.7011e-05
aF1.0794
aF3.7005e-05
aa(lp314
F1.0954
aF3.6997e-05
aF1.1146
aF3.6988e-05
aF1.1217
aF3.6985e-05
aa(lp315
F1.1218
aF3.6985e-05
aF1.1249
aF3.6984e-05
aF1.1334
aF3.698e-05
aa(lp316
F1.1382
aF3.6978e-05
aF1.1428
aF3.6976e-05
aF1.1484
aF3.6974e-05
aa(lp317
F1.1647
aF3.6967e-05
aF1.1918
aF3.6956e-05
aF1.2266
aF3.6944e-05
aa(lp318
F1.2643
aF3.6932e-05
aF1.3001
aF3.6921e-05
aF1.3288
aF3.6913e-05
aa(lp319
F1.3462
aF3.6909e-05
aF1.3532
aF3.6907e-05
aF1.3606
aF3.6905e-05
aa(lp320
F1.395
aF3.6897e-05
aF1.4833
aF3.6878e-05
aF1.5285
aF3.687e-05
aa(lp321
F1.5708
aF3.6863e-05
aF1.6137
aF3.6857e-05
aF1.6263
aF3.6855e-05
aa(lp322
F1.6263
aF3.6855e-05
aF1.6369
aF3.6853e-05
aF1.6658
aF3.6849e-05
aa(lp323
F1.6765
aF3.6848e-05
aF1.6765
aF3.6848e-05
aF1.8305
aF3.683e-05
aa(lp324
F2.2846
aF3.6798e-05
aF2.6575
aF3.6783e-05
aF3.2261
aF3.6769e-05
aa(lp325
F3.695
aF3.6763e-05
aF4.4137
aF3.6756e-05
aF5.0047
aF3.6753e-05
aa(lp326
F5.9125
aF3.675e-05
aF6.6181
aF3.6748e-05
aF7.6362
aF3.6746e-05
aa(lp327
F8.1114
aF3.6746e-05
aF8.34
aF3.6746e-05
aF8.7856
aF3.6745e-05
aa(lp328
F10.282
aF3.6744e-05
aF12.714
aF3.6743e-05
aF15.45
aF3.6743e-05
aa(lp329
F17.506
aF3.6743e-05
aF18.661
aF3.6742e-05
aF21.159
aF3.6742e-05
aa(lp330
F25.207
aF3.6742e-05
aF29.778
aF3.6742e-05
aF33.244
aF3.6742e-05
aa(lp331
F35.134
aF3.6742e-05
aF39.099
aF3.6742e-05
aF45.616
aF3.6742e-05
aa(lp332
F53.146
aF3.6742e-05
aF58.988
aF3.6742e-05
aF62.221
aF3.6742e-05
aa(lp333
F69.116
aF3.6742e-05
aF80.765
aF3.6742e-05
aF94.657
aF3.6742e-05
aa(lp334
F105.7
aF3.6742e-05
aF111.9
aF3.6742e-05
aF125.3
aF3.6742e-05
aa(lp335
F148.31
aF3.6742e-05
aF176.14
aF3.6742e-05
aF198.4
aF3.6742e-05
aa(lp336
F210.9
aF3.6742e-05
aF237.86
aF3.6742e-05
aF283.83
aF3.6742e-05
aa(lp337
F338.53
aF3.6742e-05
aF381.45
aF3.6742e-05
aF405.21
aF3.6742e-05
aa(lp338
F455.59
aF3.6742e-05
aF538.91
aF3.6742e-05
aF633.94
aF3.6742e-05
aa(lp339
F705.62
aF3.6742e-05
aF744.29
aF3.6742e-05
aF824.01
aF3.6742e-05
aa(lp340
F949.57
aF3.6742e-05
aF1084.2
aF3.6742e-05
aF1180.1
aF3.6742e-05
aa(lp341
F1230.1
aF3.6742e-05
aF1329.1
aF3.6742e-05
aF1475.1
aF3.6742e-05
aa(lp342
F1618.8
aF3.6742e-05
aF1713.5
aF3.6742e-05
aF1760.3
aF3.6742e-05
aa(lp343
F1848.0
aF3.6742e-05
aF1964.9
aF3.6742e-05
aF2064.6
aF3.6742e-05
aa(lp344
F2121.3
aF3.6742e-05
aF2146.3
aF3.6742e-05
aF2187.3
aF3.6742e-05
aa(lp345
F2227.4
aF3.6742e-05
aF2243.2
aF3.6742e-05
aF2240.2
aF3.6742e-05
aa(lp346
F2234.5
aF3.6742e-05
aF2215.4
aF3.6742e-05
aF2170.0
aF3.6742e-05
aa(lp347
F2106.3
aF3.6742e-05
aF2053.9
aF3.6742e-05
aF2024.8
aF3.6742e-05
aa(lp348
F1963.8
aF3.6742e-05
aF1867.3
aF3.6742e-05
aF1765.3
aF3.6742e-05
aa(lp349
F1694.2
aF3.6742e-05
aF1657.8
aF3.6742e-05
aF1586.9
aF3.6742e-05
aa(lp350
F1485.4
aF3.6742e-05
aF1388.6
aF3.6742e-05
aF1325.9
aF3.6742e-05
aa(lp351
F1295.2
aF3.6742e-05
aF1237.6
aF3.6742e-05
aF1159.9
aF3.6742e-05
aa(lp352
F1090.5
aF3.6742e-05
aF1047.9
aF3.6742e-05
aF1027.6
aF3.6742e-05
aa(lp353
F990.85
aF3.6742e-05
aF943.75
aF3.6742e-05
aF904.3
aF3.6742e-05
aa(lp354
F881.51
aF3.6742e-05
aF871.12
aF3.6742e-05
aF853.06
aF3.6742e-05
aa(lp355
F831.82
aF3.6742e-05
aF816.27
aF3.6742e-05
aF808.65
aF3.6742e-05
aa(lp356
F805.62
aF3.6742e-05
aF801.3
aF3.6742e-05
aF798.55
aF3.6742e-05
aa(lp357
F799.63
aF3.6742e-05
aF802.33
aF3.6742e-05
aF803.26
aF3.6742e-05
aa.