(lp0
(lp1
F2763.2
aF6.4948
aF2888.3
aF6.4824
aF3177.9
aF6.4634
aa(lp2
F3866.1
aF6.4421
aF5138.2
aF6.422
aF6571.7
aF6.4055
aa(lp3
F7429.0
aF5.9647
aF7734.6
aF5.5628
aF7820.0
aF5.3685
aa(lp4
F7842.7
aF5.1022
aF7822.7
aF4.9964
aF7814.3
aF4.963
aa(lp5
F7797.0
aF4.9033
aF7728.3
aF4.7296
aF7589.3
aF4.5142
aa(lp6
F7474.5
aF4.3573
aF7435.4
aF4.3064
aF7413.7
aF4.2785
aa(lp7
F7383.6
aF4.2407
aF7316.4
aF4.1661
aF7286.7
aF4.1343
aa(lp8
F7273.3
aF4.1211
aF7151.3
aF3.9765
aF7062.8
aF3.6236
aa(lp9
F7049.4
aF3.4963
aF7048.9
aF3.4747
aF7042.9
aF3.4187
aa(lp10
F7042.8
aF3.2375
aF7094.5
aF2.993
aF7215.3
aF2.7711
aa(lp11
F7327.5
aF2.6312
aF7369.9
aF2.586
aF7399.2
aF2.5565
aa(lp12
F7412.8
aF2.5431
aF7420.4
aF2.5358
aF7428.7
aF2.5279
aa(lp13
F7444.1
aF2.5135
aF7484.2
aF2.4771
aF7585.1
aF2.3943
aa(lp14
F7676.3
aF2.3287
aF7815.7
aF2.2333
aF7923.4
aF2.1633
aa(lp15
F8081.2
aF2.0678
aF8138.3
aF2.0321
aF8147.1
aF2.0266
aa(lp16
F8187.1
aF2.0017
aF8285.1
aF1.9408
aF8326.6
aF1.9153
aa(lp17
F8344.0
aF1.9051
aF8366.1
aF1.8922
aF8408.2
aF1.8672
aa(lp18
F8429.3
aF1.8545
aF8445.6
aF1.8448
aF8556.4
aF1.7767
aa(lp19
F8656.3
aF1.6145
aF8659.5
aF1.5568
aF8660.1
aF1.549
aa(lp20
F8660.7
aF1.5418
aF8661.8
aF1.5302
aF8667.3
aF1.4831
aa(lp21
F8664.7
aF1.3734
aF8667.7
aF1.3334
aF8669.2
aF1.327
aa(lp22
F8675.0
aF1.3082
aF8733.5
aF1.2648
aF8769.1
aF1.2439
aa(lp23
F8796.0
aF1.2291
aF8918.0
aF1.1861
aF9258.3
aF1.0904
aa(lp24
F9399.8
aF1.056
aF9420.6
aF1.0512
aF9455.1
aF1.0433
aa(lp25
F9529.4
aF1.0267
aF9624.7
aF5.3682
aF9709.6
aF5.1481
aa(lp26
F9629.6
aF5.0032
aF9504.8
aF4.7808
aF9725.3
aF4.5705
aa(lp27
F9794.9
aF4.5076
aF9806.9
aF4.4969
aF9820.1
aF4.4852
aa(lp28
F9844.1
aF4.464
aF9972.9
aF4.3535
aF10349.0
aF4.0874
aa(lp29
F10508.0
aF3.9883
aF10538.0
aF3.97
aF10642.0
aF3.9071
aa(lp30
F10889.0
aF3.7584
aF10987.0
aF3.6997
aF11015.0
aF3.683
aa(lp31
F11092.0
aF3.6376
aF11272.0
aF3.533
aF11367.0
aF3.4786
aa(lp32
F11450.0
aF3.4325
aF11491.0
aF3.4102
aF11519.0
aF3.3952
aa(lp33
F11544.0
aF3.3814
aF11585.0
aF3.3591
aF11610.0
aF3.3455
aa(lp34
F11637.0
aF3.3308
aF11659.0
aF3.3191
aF11675.0
aF3.3101
aa(lp35
F11689.0
aF3.3028
aF4826.8
aF3.2398
aF4997.3
aF3.0817
aa(lp36
F5058.7
aF3.0214
aF5071.5
aF3.0085
aF5096.9
aF2.9826
aa(lp37
F5150.7
aF2.9257
aF5070.9
aF2.9007
aF4998.6
aF2.8884
aa(lp38
F4785.7
aF2.8527
aF4267.3
aF2.7695
aF3271.1
aF2.6235
aa(lp39
F3513.4
aF2.4991
aF3316.4
aF2.4466
aF3331.7
aF2.3801
aa(lp40
F3339.7
aF2.3307
aF3059.5
aF2.3161
aF2664.0
aF2.3114
aa(lp41
F2235.4
aF2.2858
aF2173.8
aF2.2005
aF2082.6
aF2.1013
aa(lp42
F1988.3
aF1.9975
aF1944.4
aF1.9453
aF1910.1
aF1.9028
aa(lp43
F1897.1
aF1.8863
aF1868.3
aF1.8827
aF1719.7
aF1.8329
aa(lp44
F1627.9
aF1.7084
aF1597.7
aF1.661
aF1193.1
aF1.6488
aa(lp45
F1174.2
aF1.6169
aF1138.0
aF1.5449
aF1130.6
aF1.5176
aa(lp46
F1130.1
aF1.5121
aF1126.1
aF1.4933
aF1119.0
aF1.4486
aa(lp47
F1117.0
aF1.429
aF1116.2
aF1.4189
aF1129.8
aF1.3229
aa(lp48
F1204.8
aF1.1069
aF1245.2
aF1.0367
aF1240.5
aF1.0299
aa(lp49
F1243.2
aF1.0244
aF1247.3
aF1.0162
aF1259.9
aF0.99184
aa(lp50
F2734.2
aF0.93641
aF2573.7
aF0.91605
aF2478.9
aF0.91317
aa(lp51
F2409.5
aF0.91107
aF2314.6
aF0.90821
aF2245.2
aF0.90612
aa(lp52
F2150.4
aF0.90328
aF1577.9
aF0.88636
aF1226.2
aF0.84473
aa(lp53
F1233.6
aF0.82919
aF1234.9
aF0.82665
aF1237.0
aF0.82249
aa(lp54
F1241.5
aF0.81374
aF1243.6
aF0.80966
aF1244.9
aF0.8072
aa(lp55
F1247.8
aF0.80182
aF1254.5
aF0.78975
aF1257.5
aF0.78452
aa(lp56
F1258.9
aF0.78215
aF1260.3
aF0.77978
aF1262.8
aF0.77568
aa(lp57
F1263.9
aF0.77376
aF1264.5
aF0.77259
aF1267.2
aF0.76772
aa(lp58
F1274.7
aF0.75573
aF1285.9
aF0.73881
aF1309.6
aF0.70574
aa(lp59
F1313.1
aF0.69336
aF1298.7
aF0.69134
aF1314.7
aF0.67497
aa(lp60
F1357.6
aF0.63449
aF1091.8
aF0.62013
aF322.14
aF0.61925
aa(lp61
F38.32
aF0.60533
aF33.697
aF0.57005
aF30.271
aF0.53883
aa(lp62
F25.991
aF0.49103
aF24.737
aF0.47443
aF24.648
aF0.47319
aa(lp63
F15.724
aF0.46791
aF15.437
aF0.46104
aF15.16
aF0.45384
aa(lp64
F14.913
aF0.44678
aF14.746
aF0.44203
aF14.507
aF0.43469
aa(lp65
F14.416
aF0.43163
aF14.384
aF0.43053
aF14.17
aF0.42246
aa(lp66
F13.679
aF0.39519
aF13.081
aF0.36289
aF12.826
aF0.34039
aa(lp67
F12.781
aF0.33412
aF10.198
aF0.33252
aF10.035
aF0.32659
aa(lp68
F9.5848
aF0.309
aF9.2278
aF0.29261
aF9.1376
aF0.28781
aa(lp69
F9.1253
aF0.28715
aF9.0236
aF0.28155
aF9.3313
aF0.26757
aa(lp70
F9.4896
aF0.26246
aF9.5083
aF0.26187
aF9.6568
aF0.25732
aa(lp71
F10.057
aF0.24592
aF9.6528
aF0.24168
aF8.5439
aF0.24123
aa(lp72
F3.5117
aF0.23766
aF3.8474
aF0.22882
aF3.9794
aF0.22552
aa(lp73
F3.999
aF0.22504
aF4.0114
aF0.21871
aF3.6977
aF0.20297
aa(lp74
F3.5812
aF0.19727
aF2.7055
aF0.19646
aF2.7105
aF0.19494
aa(lp75
F2.7151
aF0.19358
aF2.7164
aF0.19318
aF2.731
aF0.18917
aa(lp76
F2.7736
aF0.17909
aF2.7911
aF0.17545
aF2.7928
aF0.1751
aa(lp77
F2.8082
aF0.17212
aF2.7977
aF0.16463
aF2.7935
aF0.16176
aa(lp78
F2.5556
aF0.16113
aF2.5441
aF0.15867
aF2.5165
aF0.1528
aa(lp79
F2.5063
aF0.15061
aF2.5049
aF0.15032
aF2.5012
aF0.14954
aa(lp80
F2.4905
aF0.14726
aF2.4798
aF0.14502
aF2.4708
aF0.14314
aa(lp81
F2.4488
aF0.13859
aF2.4209
aF0.13293
aF2.4002
aF0.12878
aa(lp82
F2.3865
aF0.12567
aF2.3638
aF0.12032
aF2.3552
aF0.11836
aa(lp83
F2.3543
aF0.11814
aF2.3512
aF0.11745
aF1.0962
aF0.11578
aa(lp84
F1.098
aF0.1151
aF1.0985
aF0.1149
aF1.1096
aF0.11076
aa(lp85
F1.1222
aF0.10057
aF1.1262
aF0.097019
aF1.1266
aF0.09669
aa(lp86
F1.1282
aF0.095396
aF1.1337
aF0.09115
aF1.1412
aF0.085965
aa(lp87
F1.1515
aF0.082242
aF1.1543
aF0.081261
aF1.1545
aF0.081195
aa(lp88
F1.1562
aF0.080652
aF1.162
aF0.07874
aF1.1697
aF0.076331
aa(lp89
F1.1756
aF0.074548
aF1.1785
aF0.073695
aF1.183
aF0.072385
aa(lp90
F1.1876
aF0.071104
aF1.189
aF0.070696
aF1.1894
aF0.070586
aa(lp91
F1.1906
aF0.070265
aF1.1934
aF0.069505
aF1.1946
aF0.06919
aa(lp92
F1.195
aF0.069083
aF1.1973
aF0.068455
aF1.2056
aF0.066302
aa(lp93
F1.2164
aF0.063622
aF1.2247
aF0.06166
aF1.2272
aF0.0611
aa(lp94
F1.2278
aF0.060962
aF1.2316
aF0.060101
aF1.2415
aF0.057955
aa(lp95
F1.2453
aF0.057162
aF1.2457
aF0.057078
aF1.2471
aF0.056787
aa(lp96
F0.85817
aF0.056084
aF0.85887
aF0.055814
aF0.85898
aF0.055773
aa(lp97
F0.86124
aF0.054916
aF0.8673
aF0.052696
aF0.86959
aF0.051885
aa(lp98
F0.8698
aF0.051811
aF0.87094
aF0.051415
aF0.8749
aF0.05006
aa(lp99
F0.88004
aF0.048361
aF0.88395
aF0.047108
aF0.88509
aF0.046757
aa(lp100
F0.88532
aF0.046692
aF0.88703
aF0.046219
aF0.89146
aF0.045021
aa(lp101
F0.83144
aF0.04459
aF0.83146
aF0.044586
aF0.83154
aF0.04456
aa(lp102
F0.83282
aF0.044157
aF0.83848
aF0.043141
aF0.84159
aF0.042756
aa(lp103
F0.84206
aF0.042697
aF0.84578
aF0.042243
aF0.85547
aF0.041089
aa(lp104
F0.85919
aF0.040657
aF0.85966
aF0.040602
aF0.86217
aF0.040314
aa(lp105
F0.86799
aF0.039594
aF0.8676
aF0.039324
aF0.86754
aF0.039298
aa(lp106
F0.84874
aF0.039231
aF0.84123
aF0.039075
aF0.84099
aF0.03898
aa(lp107
F0.84073
aF0.038877
aF0.84059
aF0.03882
aF0.84046
aF0.038769
aa(lp108
F0.83953
aF0.038403
aF0.83628
aF0.037136
aF0.83206
aF0.03556
aa(lp109
F0.82879
aF0.03441
aF0.82742
aF0.033952
aF0.82608
aF0.033521
aa(lp110
F0.78805
aF0.033279
aF0.78964
aF0.032944
aF0.79198
aF0.032462
aa(lp111
F0.79431
aF0.031988
aF0.7959
aF0.031669
aF0.7975
aF0.031351
aa(lp112
F0.802
aF0.030481
aF0.80675
aF0.029391
aF0.81036
aF0.028589
aa(lp113
F0.81226
aF0.02821
aF0.81475
aF0.027751
aF0.81699
aF0.027348
aa(lp114
F0.82058
aF0.026714
aF0.82331
aF0.026244
aF0.82716
aF0.025596
aa(lp115
F0.82871
aF0.025342
aF0.82732
aF0.025283
aF0.829
aF0.025032
aa(lp116
F0.83317
aF0.024422
aF0.8355
aF0.024088
aF0.83829
aF0.023696
aa(lp117
F0.84107
aF0.023312
aF0.84279
aF0.02308
aF0.84529
aF0.02275
aa(lp118
F0.84628
aF0.022621
aF0.84648
aF0.022595
aF0.84713
aF0.02251
aa(lp119
F0.84873
aF0.022305
aF0.84942
aF0.022216
aF0.84972
aF0.022178
aa(lp120
F0.85071
aF0.022052
aF0.85402
aF0.021637
aF0.85833
aF0.021111
aa(lp121
F0.86161
aF0.020718
aF0.86255
aF0.020607
aF0.86275
aF0.020584
aa(lp122
F0.8644
aF0.020391
aF0.86884
aF0.019898
aF0.87224
aF0.019586
aa(lp123
F0.87629
aF0.019222
aF0.87785
aF0.019084
aF0.87809
aF0.019063
aa(lp124
F0.88004
aF0.018892
aF0.88512
aF0.018454
aF0.88806
aF0.018206
aa(lp125
F0.89099
aF0.017962
aF0.8943
aF0.017691
aF0.90037
aF0.017205
aa(lp126
F0.90313
aF0.016989
aF0.90464
aF0.016872
aF0.90528
aF0.016822
aa(lp127
F0.90551
aF0.016805
aF0.90669
aF0.016714
aF0.91116
aF0.016381
aa(lp128
F0.9182
aF0.01588
aF0.9261
aF0.015336
aF0.93305
aF0.014875
aa(lp129
F0.93749
aF0.014588
aF0.93964
aF0.014451
aF0.94359
aF0.014204
aa(lp130
F0.94871
aF0.01389
aF0.95262
aF0.013656
aF0.95374
aF0.013589
aa(lp131
F0.95397
aF0.013576
aF0.95427
aF0.013558
aF0.95484
aF0.013524
aa(lp132
F0.95514
aF0.013507
aF0.95537
aF0.013493
aF0.95641
aF0.013432
aa(lp133
F0.96026
aF0.013209
aF0.96623
aF0.012871
aF0.97285
aF0.012502
aa(lp134
F0.97862
aF0.012186
aF0.98231
aF0.011989
aF0.98433
aF0.011882
aa(lp135
F0.98846
aF0.011666
aF0.99439
aF0.011393
aF0.99848
aF0.011188
aa(lp136
F1.0005
aF0.011088
aF1.0032
aF0.010963
aF1.0042
aF0.010914
aa(lp137
F1.0044
aF0.010903
aF1.0055
aF0.010853
aF1.0094
aF0.010668
aa(lp138
F1.0156
aF0.010388
aF1.0224
aF0.010083
aF1.0285
aF0.0098227
aa(lp139
F1.0323
aF0.0096599
aF1.0344
aF0.0095734
aF1.0386
aF0.0094016
aa(lp140
F1.044
aF0.0091833
aF1.0482
aF0.0090203
aF1.0504
aF0.008935
aa(lp141
F1.0545
aF0.0087775
aF1.0598
aF0.0085773
aF1.0639
aF0.0084277
aa(lp142
F1.0657
aF0.0083627
aF1.0676
aF0.0082931
aF1.0699
aF0.0082081
aa(lp143
F1.0745
aF0.0080481
aF1.078
aF0.0079246
aF1.0832
aF0.007748
aa(lp144
F1.0851
aF0.0076821
aF1.0853
aF0.0076755
aF1.0862
aF0.0076441
aa(lp145
F1.0886
aF0.0075656
aF1.0904
aF0.0075046
aF1.0941
aF0.0073839
aa(lp146
F1.0989
aF0.0072301
aF1.1025
aF0.007115
aF1.1041
aF0.0070661
aa(lp147
F1.1057
aF0.0070157
aF1.1064
aF0.0069941
aF1.1067
aF0.0069853
aa(lp148
F1.107
aF0.0069746
aF1.1077
aF0.0069541
aF1.108
aF0.0069445
aa(lp149
F1.1082
aF0.0069387
aF1.1093
aF0.0069057
aF1.112
aF0.0068224
aa(lp150
F1.1133
aF0.0067829
aF1.1142
aF0.0067575
aF1.1145
aF0.0067462
aa(lp151
F1.1147
aF0.0067405
aF1.1163
aF0.0066935
aF1.1204
aF0.0065724
aa(lp152
F1.1219
aF0.0065269
aF1.1221
aF0.0065215
aF1.1227
aF0.0065057
aa(lp153
F1.124
aF0.0064683
aF1.1245
aF0.0064527
aF1.1247
aF0.0064474
aa(lp154
F1.1266
aF0.0063933
aF1.1316
aF0.0062535
aF1.1335
aF0.0062014
aa(lp155
F1.1337
aF0.0061963
aF1.1373
aF0.0060976
aF1.1468
aF0.0058424
aa(lp156
F1.1537
aF0.0056641
aF1.1629
aF0.0054315
aF1.1662
aF0.0053479
aa(lp157
F1.1664
aF0.0053437
aF1.1673
aF0.0053206
aF1.1706
aF0.0052406
aa(lp158
F1.1748
aF0.0051385
aF1.178
aF0.0050619
aF1.1801
aF0.0050135
aa(lp159
F1.1845
aF0.0049095
aF1.1902
aF0.0047778
aF1.1946
aF0.0046799
aa(lp160
F1.1968
aF0.0046292
aF1.1999
aF0.0045618
aF1.2016
aF0.0045247
aa(lp161
F1.2039
aF0.0044741
aF1.2075
aF0.0043967
aF1.2115
aF0.0043112
aa(lp162
F1.215
aF0.0042373
aF1.2172
aF0.0041908
aF1.2178
aF0.0041781
aa(lp163
F1.2179
aF0.0041751
aF1.2192
aF0.0041477
aF1.2226
aF0.0040771
aa(lp164
F1.2236
aF0.0040506
aF1.2232
aF0.0040476
aF1.2239
aF0.0040304
aa(lp165
F1.226
aF0.0039868
aF1.2268
aF0.0039699
aF1.227
aF0.0039671
aa(lp166
F1.2281
aF0.0039449
aF1.2319
aF0.0038667
aF1.2367
aF0.0037677
aa(lp167
F1.2404
aF0.003694
aF1.2414
aF0.0036737
aF1.2413
aF0.0036711
aa(lp168
F1.242
aF0.0036561
aF1.2447
aF0.0036041
aF1.2482
aF0.0035375
aa(lp169
F1.2508
aF0.0034875
aF1.2515
aF0.0034735
aF1.2517
aF0.003471
aa(lp170
F1.2525
aF0.0034556
aF1.2553
aF0.0034018
aF1.259
aF0.0033331
aa(lp171
F1.2617
aF0.0032817
aF1.2632
aF0.0032547
aF1.2659
aF0.0032048
aa(lp172
F1.2693
aF0.0031411
aF1.2719
aF0.0030934
aF1.2733
aF0.0030683
aa(lp173
F1.2758
aF0.003022
aF1.2791
aF0.0029629
aF1.2816
aF0.0029186
aa(lp174
F1.283
aF0.0028953
aF1.2854
aF0.0028523
aF1.2885
aF0.0027974
aa(lp175
F1.2909
aF0.0027562
aF1.2919
aF0.0027377
aF1.2936
aF0.0027091
aa(lp176
F1.2957
aF0.0026725
aF1.2973
aF0.0026448
aF1.2977
aF0.0026368
aa(lp177
F1.2978
aF0.0026351
aF1.2987
aF0.0026205
aF1.3008
aF0.0025827
aa(lp178
F1.3018
aF0.0025651
aF1.3024
aF0.0025544
aF1.303
aF0.0025436
aa(lp179
F1.304
aF0.0025249
aF1.3055
aF0.0024987
aF1.3084
aF0.0024468
aa(lp180
F1.31
aF0.0024205
aF1.3111
aF0.0023999
aF1.3116
aF0.0023919
aa(lp181
F1.3117
aF0.0023904
aF1.3122
aF0.0023808
aF1.3142
aF0.0023472
aa(lp182
F1.3148
aF0.0023043
aF1.3165
aF0.0022721
aF1.317
aF0.0022631
aa(lp183
F1.3171
aF0.0022617
aF1.3176
aF0.0022527
aF1.3192
aF0.0022214
aa(lp184
F1.3213
aF0.0021814
aF1.3228
aF0.0021514
aF1.3236
aF0.0021356
aa(lp185
F1.3251
aF0.0021064
aF1.327
aF0.002069
aF1.3283
aF0.0020409
aa(lp186
F1.329
aF0.0020261
aF1.3303
aF0.0019988
aF1.332
aF0.0019638
aa(lp187
F1.3332
aF0.0019375
aF1.3341
aF0.0019168
aF1.3358
aF0.0018797
aa(lp188
F1.3367
aF0.0018589
aF1.3375
aF0.0018388
aF1.3379
aF0.0018301
aa(lp189
F1.338
aF0.0018264
aF1.3381
aF0.0018246
aF1.3381
aF0.0018235
aa(lp190
F1.3386
aF0.0018107
aF1.34
aF0.0017772
aF1.3404
aF0.0017649
aa(lp191
F1.3405
aF0.0017644
aF1.3407
aF0.0017571
aF1.3414
aF0.0017379
aa(lp192
F1.3417
aF0.0017306
aF1.3417
aF0.0017296
aF1.342
aF0.0017225
aa(lp193
F1.3426
aF0.0017042
aF1.3433
aF0.0016834
aF1.3445
aF0.0016454
aa(lp194
F1.3452
aF0.0016224
aF1.3459
aF0.0015974
aF1.3462
aF0.0015865
aa(lp195
F1.3464
aF0.0015816
aF1.3464
aF0.0015795
aF1.3465
aF0.0015786
aa(lp196
F1.3466
aF0.0015716
aF1.3471
aF0.0015536
aF1.3473
aF0.001547
aa(lp197
F1.3473
aF0.001547
aF1.3473
aF0.0015469
aF1.3475
aF0.0015353
aa(lp198
F1.3482
aF0.0015041
aF1.3484
aF0.0014926
aF1.3484
aF0.0014918
aa(lp199
F1.3484
aF0.0014912
aF1.3484
aF0.0014904
aF1.3484
aF0.0014898
aa(lp200
F1.3485
aF0.0014889
aF1.3485
aF0.0014883
aF1.3485
aF0.0014875
aa(lp201
F1.3485
aF0.001485
aF1.3486
aF0.0014788
aF1.3487
aF0.0014763
aa(lp202
F1.3487
aF0.0014755
aF1.3488
aF0.0014701
aF1.349
aF0.0014564
aa(lp203
F1.3491
aF0.0014479
aF1.3492
aF0.0014384
aF1.3492
aF0.0014348
aa(lp204
F1.3493
aF0.0014344
aF1.3494
aF0.0014247
aF1.3496
aF0.0013989
aa(lp205
F1.3497
aF0.0013789
aF1.3497
aF0.0013395
aF1.3492
aF0.0012903
aa(lp206
F1.3486
aF0.0012541
aF1.3481
aF0.0012325
aF1.3468
aF0.0011882
aa(lp207
F1.3444
aF0.0011334
aF1.3421
aF0.0010937
aF1.341
aF0.001077
aa(lp208
F1.3392
aF0.0010534
aF1.3367
aF0.0010237
aF1.3345
aF0.0010016
aa(lp209
F1.3339
aF0.00099564
aF1.3339
aF0.00099515
aF1.3334
aF0.00099068
aa(lp210
F1.3315
aF0.00097369
aF1.3282
aF0.00094798
aF1.3243
aF0.00091999
aa(lp211
F1.3206
aF0.00089609
aF1.318
aF0.00088118
aF1.3163
aF0.00087118
aa(lp212
F1.3115
aF0.00084632
aF1.3034
aF0.0008094
aF1.2935
aF0.00077019
aa(lp213
F1.2839
aF0.00073752
aF1.2773
aF0.00071751
aF1.2756
aF0.00071252
aa(lp214
F1.2755
aF0.00071221
aF1.2731
aF0.00070552
aF1.2666
aF0.00068797
aa(lp215
F1.2623
aF0.00067695
aF1.2549
aF0.00065953
aF1.2449
aF0.00063767
aa(lp216
F1.2369
aF0.00062157
aF1.2328
aF0.00061385
aF1.2257
aF0.00060087
aa(lp217
F1.2162
aF0.00058447
aF1.2087
aF0.00057231
aF1.2032
aF0.00056394
aa(lp218
F1.1938
aF0.00055009
aF1.1826
aF0.00053456
aF1.1605
aF0.00050705
aa(lp219
F1.1473
aF0.00049213
aF1.1339
aF0.00047796
aF1.1288
aF0.00047285
aa(lp220
F1.1287
aF0.00047266
aF1.1232
aF0.00046729
aF1.1081
aF0.0004532
aa(lp221
F1.0987
aF0.00044492
aF1.0834
aF0.00043213
aF1.059
aF0.00041318
aa(lp222
F1.0304
aF0.00039311
aF1.0041
aF0.00037644
aF0.98682
aF0.00036625
aa(lp223
F0.9775
aF0.00036098
aF0.95864
aF0.00035076
aF0.93356
aF0.00033801
aa(lp224
F0.9139
aF0.00032868
aF0.9085
aF0.00032621
aF0.90825
aF0.0003261
aa(lp225
F0.90133
aF0.00032299
aF0.87357
aF0.00031105
aF0.82935
aF0.00029365
aa(lp226
F0.77768
aF0.0002756
aF0.73099
aF0.00026092
aF0.70065
aF0.00025207
aa(lp227
F0.69288
aF0.00024991
aF0.69261
aF0.00024983
aF0.69032
aF0.0002492
aa(lp228
F0.6815
aF0.0002468
aF0.66777
aF0.00024312
aF0.65223
aF0.00023906
aa(lp229
F0.63846
aF0.00023555
aF0.62962
aF0.00023334
aF0.6205
aF0.00023108
aa(lp230
F0.60157
aF0.00022652
aF0.59068
aF0.00022395
aF0.57575
aF0.00022052
aa(lp231
F0.55609
aF0.00021616
aF0.54108
aF0.00021291
aF0.53021
aF0.00021059
aa(lp232
F0.50451
aF0.00020523
aF0.47117
aF0.00019855
aF0.44553
aF0.00019365
aa(lp233
F0.42853
aF0.00019049
aF0.40106
aF0.00018549
aF0.39101
aF0.0001837
aa(lp234
F0.39072
aF0.00018365
aF0.38899
aF0.00018334
aF0.38455
aF0.00018255
aa(lp235
F0.38283
aF0.00018225
aF0.38257
aF0.0001822
aF0.38183
aF0.00018207
aa(lp236
F0.38009
aF0.00018176
aF0.37934
aF0.00018163
aF0.37923
aF0.00018161
aa(lp237
F0.3792
aF0.00018161
aF0.37667
aF0.00018116
aF0.36729
aF0.00017952
aa(lp238
F0.35514
aF0.00017741
aF0.34588
aF0.00017583
aF0.33851
aF0.00017458
aa(lp239
F0.32511
aF0.00017236
aF0.31431
aF0.00017058
aF0.29828
aF0.00016796
aa(lp240
F0.28964
aF0.00016655
aF0.27905
aF0.00016484
aF0.26541
aF0.00016264
aa(lp241
F0.2551
aF0.00016098
aF0.24694
aF0.00015968
aF0.22539
aF0.00015627
aa(lp242
F0.19306
aF0.00015118
aF0.15883
aF0.00014575
aF0.13114
aF0.0001412
aa(lp243
F0.11481
aF0.0001384
aF0.11092
aF0.0001377
aF0.11076
aF0.00013767
aa(lp244
F0.10709
aF0.00013701
aF0.094277
aF0.00013459
aF0.079771
aF0.00013155
aa(lp245
F0.070858
aF0.00012929
aF0.061291
aF0.00012811
aF0.061981
aF0.00012595
aa(lp246
F0.062887
aF0.00012322
aF0.063587
aF0.00012119
aF0.063967
aF0.00012012
aa(lp247
F0.064686
aF0.00011813
aF0.065635
aF0.00011562
aF0.066369
aF0.00011375
aa(lp248
F0.066569
aF0.00011326
aF0.066577
aF0.00011324
aF0.066818
aF0.00011265
aa(lp249
F0.067715
aF0.0001105
aF0.068896
aF0.00010781
aF0.06981
aF0.00010583
aa(lp250
F0.070166
aF0.00010508
aF0.070617
aF0.00010415
aF0.071318
aF0.00010273
aa(lp251
F0.072115
aF0.00010117
aF0.072826
aF9.9823e-05
aF0.073284
aF9.8976e-05
aa(lp252
F0.073601
aF9.8401e-05
aF0.074364
aF9.7048e-05
aF0.075366
aF9.5334e-05
aa(lp253
F0.07614
aF9.406e-05
aF0.076762
aF9.3107e-05
aF0.077879
aF9.1456e-05
aa(lp254
F0.078293
aF9.086e-05
aF0.078303
aF9.0846e-05
aF0.078652
aF9.0352e-05
aa(lp255
F0.079594
aF8.9044e-05
aF0.080109
aF8.8348e-05
aF0.080788
aF8.7448e-05
aa(lp256
F0.081851
aF8.6083e-05
aF0.083058
aF8.4593e-05
aF0.084133
aF8.3317e-05
aa(lp257
F0.084826
aF8.2519e-05
aF0.085231
aF8.2061e-05
aF0.086169
aF8.1026e-05
aa(lp258
F0.087638
aF7.9467e-05
aF0.089309
aF7.7782e-05
aF0.090801
aF7.6354e-05
aa(lp259
F0.091763
aF7.5468e-05
aF0.092008
aF7.5247e-05
aF0.092018
aF7.5238e-05
aa(lp260
F0.092217
aF7.506e-05
aF0.093
aF7.4368e-05
aF0.094225
aF7.3319e-05
aa(lp261
F0.095617
aF7.2175e-05
aF0.096862
aF7.1195e-05
aF0.097665
aF7.0583e-05
aa(lp262
F0.098065
aF7.0284e-05
aF0.098864
aF6.9695e-05
aF0.10012
aF6.8802e-05
aa(lp263
F0.10154
aF6.7826e-05
aF0.1028
aF6.6989e-05
aF0.10361
aF6.6466e-05
aa(lp264
F0.10382
aF6.6334e-05
aF0.10383
aF6.6327e-05
aF0.10409
aF6.6163e-05
aa(lp265
F0.10482
aF6.5711e-05
aF0.10644
aF6.4734e-05
aF0.10807
aF6.3795e-05
aa(lp266
F0.10904
aF6.3257e-05
aF0.11038
aF6.2532e-05
aF0.11129
aF6.2056e-05
aa(lp267
F0.11218
aF6.16e-05
aF0.11278
aF6.1299e-05
aF0.11337
aF6.1009e-05
aa(lp268
F0.11416
aF6.0624e-05
aF0.11486
aF6.029e-05
aF0.11588
aF5.9812e-05
aa(lp269
F0.117
aF5.9297e-05
aF0.11907
aF5.8389e-05
aF0.11982
aF5.8064e-05
aa(lp270
F0.11983
aF5.8062e-05
aF0.11983
aF5.8061e-05
aF0.11989
aF5.8036e-05
aa(lp271
F0.12004
aF5.7969e-05
aF0.1201
aF5.7943e-05
aF0.12011
aF5.7938e-05
aa(lp272
F0.12054
aF5.775e-05
aF0.1217
aF5.725e-05
aF0.12214
aF5.7069e-05
aa(lp273
F0.12215
aF5.7064e-05
aF0.12259
aF5.6885e-05
aF0.12421
aF5.6236e-05
aa(lp274
F0.12633
aF5.5422e-05
aF0.12797
aF5.4823e-05
aF0.12886
aF5.4506e-05
aa(lp275
F0.13057
aF5.3918e-05
aF0.13284
aF5.318e-05
aF0.13458
aF5.2637e-05
aa(lp276
F0.13617
aF5.2157e-05
aF0.14076
aF5.087e-05
aF0.14792
aF4.9076e-05
aa(lp277
F0.1562
aF4.7317e-05
aF0.16373
aF4.5961e-05
aF0.16868
aF4.5176e-05
aa(lp278
F0.17122
aF4.4802e-05
aF0.1765
aF4.4081e-05
aF0.18492
aF4.3068e-05
aa(lp279
F0.1947
aF4.2064e-05
aF0.2036
aF4.128e-05
aF0.20951
aF4.0824e-05
aa(lp280
F0.21369
aF4.0525e-05
aF0.22114
aF4.0037e-05
aF0.22549
aF3.9775e-05
aa(lp281
F0.22981
aF3.953e-05
aF0.23216
aF3.9402e-05
aF0.23423
aF3.9293e-05
aa(lp282
F0.23602
aF3.9201e-05
aF0.23884
aF3.906e-05
aF0.23987
aF3.901e-05
aa(lp283
F0.24079
aF3.8965e-05
aF0.24332
aF3.8846e-05
aF0.2457
aF3.8738e-05
aa(lp284
F0.2512
aF3.8499e-05
aF0.25845
aF3.8206e-05
aF0.26408
aF3.7996e-05
aa(lp285
F0.26629
aF3.7917e-05
aF0.26893
aF3.7826e-05
aF0.27239
aF3.771e-05
aa(lp286
F0.27506
aF3.7624e-05
aF0.27938
aF3.7489e-05
aF0.29405
aF3.7075e-05
aa(lp287
F0.31763
aF3.6528e-05
aF0.34534
aF3.6025e-05
aF0.37082
aF3.566e-05
aa(lp288
F0.3876
aF3.5458e-05
aF0.3933
aF3.5395e-05
aF0.39886
aF3.5337e-05
aa(lp289
F0.40618
aF3.5263e-05
aF0.41184
aF3.5209e-05
aF0.41353
aF3.5194e-05
aa(lp290
F0.4142
aF3.5187e-05
aF0.41508
aF3.5179e-05
aF0.41576
aF3.5173e-05
aa(lp291
F0.41699
aF3.5162e-05
aF0.41986
aF3.5136e-05
aF0.42404
aF3.51e-05
aa(lp292
F0.43267
aF3.5029e-05
aF0.43584
aF3.5003e-05
aF0.43585
aF3.5003e-05
aa(lp293
F0.43587
aF3.5003e-05
aF0.43588
aF3.5003e-05
aF0.43792
aF3.4987e-05
aa(lp294
F0.44352
aF3.4945e-05
aF0.44646
aF3.4923e-05
aF0.44888
aF3.4905e-05
aa(lp295
F0.45124
aF3.4888e-05
aF0.45681
aF3.485e-05
aF0.46411
aF3.4801e-05
aa(lp296
F0.46975
aF3.4765e-05
aF0.47422
aF3.4738e-05
aF0.48233
aF3.469e-05
aa(lp297
F0.4882
aF3.4656e-05
aF0.49987
aF3.4594e-05
aF0.51833
aF3.4503e-05
aa(lp298
F0.53957
aF3.4411e-05
aF0.55832
aF3.4336e-05
aF0.57048
aF3.4292e-05
aa(lp299
F0.57648
aF3.4271e-05
aF0.5884
aF3.4232e-05
aF0.60721
aF3.4175e-05
aa(lp300
F0.62882
aF3.4115e-05
aF0.64828
aF3.4067e-05
aF0.66092
aF3.4038e-05
aa(lp301
F0.66937
aF3.402e-05
aF0.68391
aF3.3989e-05
aF0.68965
aF3.3978e-05
aa(lp302
F0.69067
aF3.3976e-05
aF0.69131
aF3.3975e-05
aF0.69203
aF3.3974e-05
aa(lp303
F0.69359
aF3.3971e-05
aF0.69714
aF3.3964e-05
aF0.70169
aF3.3955e-05
aa(lp304
F0.71063
aF3.3939e-05
aF0.71425
aF3.3933e-05
aF0.71517
aF3.3931e-05
aa(lp305
F0.71583
aF3.393e-05
aF0.71672
aF3.3928e-05
aF0.71863
aF3.3925e-05
aa(lp306
F0.72298
aF3.3918e-05
aF0.72576
aF3.3913e-05
aF0.72902
aF3.3908e-05
aa(lp307
F0.73021
aF3.3906e-05
aF0.73022
aF3.3906e-05
aF0.73024
aF3.3906e-05
aa(lp308
F0.73025
aF3.3906e-05
aF0.73263
aF3.3902e-05
aF0.74236
aF3.3886e-05
aa(lp309
F0.75824
aF3.3863e-05
aF0.77767
aF3.3836e-05
aF0.79733
aF3.381e-05
aa(lp310
F0.81376
aF3.379e-05
aF0.824
aF3.3779e-05
aF0.8347
aF3.3767e-05
aa(lp311
F0.86795
aF3.3733e-05
aF0.92109
aF3.3687e-05
aF0.98304
aF3.3642e-05
aa(lp312
F1.0396
aF3.3609e-05
aF1.0768
aF3.359e-05
aF1.0877
aF3.3584e-05
aa(lp313
F1.0932
aF3.3582e-05
aF1.0988
aF3.3579e-05
aF1.1096
aF3.3574e-05
aa(lp314
F1.1261
aF3.3567e-05
aF1.1458
aF3.3559e-05
aF1.1531
aF3.3556e-05
aa(lp315
F1.1532
aF3.3556e-05
aF1.1564
aF3.3555e-05
aF1.1651
aF3.3551e-05
aa(lp316
F1.1701
aF3.3549e-05
aF1.1748
aF3.3548e-05
aF1.1805
aF3.3546e-05
aa(lp317
F1.1972
aF3.354e-05
aF1.2251
aF3.353e-05
aF1.2608
aF3.3519e-05
aa(lp318
F1.2996
aF3.3508e-05
aF1.3363
aF3.3498e-05
aF1.3658
aF3.3491e-05
aa(lp319
F1.3837
aF3.3487e-05
aF1.3909
aF3.3485e-05
aF1.3985
aF3.3484e-05
aa(lp320
F1.4338
aF3.3476e-05
aF1.5245
aF3.3459e-05
aF1.5709
aF3.3452e-05
aa(lp321
F1.6144
aF3.3446e-05
aF1.6585
aF3.344e-05
aF1.6714
aF3.3438e-05
aa(lp322
F1.6714
aF3.3438e-05
aF1.6823
aF3.3437e-05
aF1.712
aF3.3433e-05
aa(lp323
F1.7229
aF3.3432e-05
aF1.723
aF3.3432e-05
aF1.8812
aF3.3416e-05
aa(lp324
F2.3476
aF3.3387e-05
aF2.7306
aF3.3373e-05
aF3.3144
aF3.3361e-05
aa(lp325
F3.796
aF3.3355e-05
aF4.534
aF3.3349e-05
aF5.1407
aF3.3346e-05
aa(lp326
F6.0728
aF3.3343e-05
aF6.7974
aF3.3342e-05
aF7.8428
aF3.334e-05
aa(lp327
F8.3309
aF3.334e-05
aF8.5657
aF3.3339e-05
aF9.0233
aF3.3339e-05
aa(lp328
F10.56
aF3.3338e-05
aF13.059
aF3.3337e-05
aF15.87
aF3.3337e-05
aa(lp329
F17.983
aF3.3337e-05
aF19.171
aF3.3337e-05
aF21.739
aF3.3336e-05
aa(lp330
F25.902
aF3.3336e-05
aF30.606
aF3.3336e-05
aF34.175
aF3.3336e-05
aa(lp331
F36.12
aF3.3336e-05
aF40.204
aF3.3336e-05
aF46.922
aF3.3336e-05
aa(lp332
F54.687
aF3.3336e-05
aF60.714
aF3.3336e-05
aF64.051
aF3.3336e-05
aa(lp333
F71.169
aF3.3336e-05
aF83.2
aF3.3336e-05
aF97.554
aF3.3336e-05
aa(lp334
F108.97
aF3.3336e-05
aF115.38
aF3.3336e-05
aF129.23
aF3.3336e-05
aa(lp335
F153.03
aF3.3336e-05
aF181.82
aF3.3336e-05
aF204.85
aF3.3336e-05
aa(lp336
F217.78
aF3.3336e-05
aF245.66
aF3.3336e-05
aF293.23
aF3.3336e-05
aa(lp337
F349.81
aF3.3336e-05
aF394.2
aF3.3336e-05
aF418.78
aF3.3336e-05
aa(lp338
F470.9
aF3.3336e-05
aF557.07
aF3.3336e-05
aF655.36
aF3.3336e-05
aa(lp339
F729.48
aF3.3336e-05
aF769.47
aF3.3336e-05
aF851.91
aF3.3336e-05
aa(lp340
F981.74
aF3.3336e-05
aF1120.9
aF3.3336e-05
aF1220.1
aF3.3336e-05
aa(lp341
F1271.8
aF3.3336e-05
aF1374.2
aF3.3336e-05
aF1525.1
aF3.3336e-05
aa(lp342
F1673.8
aF3.3336e-05
aF1771.7
aF3.3336e-05
aF1820.1
aF3.3336e-05
aa(lp343
F1910.8
aF3.3336e-05
aF2031.7
aF3.3336e-05
aF2135.0
aF3.3336e-05
aa(lp344
F2193.7
aF3.3336e-05
aF2219.6
aF3.3336e-05
aF2262.0
aF3.3336e-05
aa(lp345
F2303.6
aF3.3336e-05
aF2320.1
aF3.3336e-05
aF2317.1
aF3.3336e-05
aa(lp346
F2311.2
aF3.3336e-05
aF2291.6
aF3.3336e-05
aF2244.8
aF3.3336e-05
aa(lp347
F2179.0
aF3.3336e-05
aF2124.8
aF3.3336e-05
aF2094.7
aF3.3336e-05
aa(lp348
F2031.7
aF3.3336e-05
aF1931.8
aF3.3336e-05
aF1826.2
aF3.3336e-05
aa(lp349
F1752.6
aF3.3336e-05
aF1714.9
aF3.3336e-05
aF1641.4
aF3.3336e-05
aa(lp350
F1536.3
aF3.3336e-05
aF1435.8
aF3.3336e-05
aF1370.7
aF3.3336e-05
aa(lp351
F1338.8
aF3.3336e-05
aF1279.0
aF3.3336e-05
aF1198.3
aF3.3336e-05
aa(lp352
F1126.1
aF3.3336e-05
aF1081.7
aF3.3336e-05
aF1060.7
aF3.3336e-05
aa(lp353
F1022.4
aF3.3336e-05
aF973.23
aF3.3336e-05
aF932.04
aF3.3336e-05
aa(lp354
F908.21
aF3.3336e-05
aF897.33
aF3.3336e-05
aF878.4
aF3.3336e-05
aa(lp355
F856.09
aF3.3336e-05
aF839.68
aF3.3336e-05
aF831.58
aF3.3336e-05
aa(lp356
F828.34
aF3.3336e-05
aF823.67
aF3.3336e-05
aF820.54
aF3.3336e-05
aa(lp357
F821.38
aF3.3336e-05
aF824.0
aF3.3336e-05
aF824.92
aF3.3336e-05
aa.