(lp0
(lp1
F1611.5
aF1.9316
aF1688.2
aF1.9271
aF1842.5
aF1.9203
aa(lp2
F2144.0
aF1.9126
aF2641.9
aF1.9054
aF3185.7
aF1.8994
aa(lp3
F3487.7
aF1.7687
aF3598.4
aF1.6497
aF3632.0
aF1.5922
aa(lp4
F3647.4
aF1.5134
aF3644.2
aF1.4821
aF3642.6
aF1.4722
aa(lp5
F3639.0
aF1.4545
aF3622.8
aF1.4031
aF3585.8
aF1.3394
aa(lp6
F3554.9
aF1.2929
aF3544.4
aF1.2778
aF3538.6
aF1.2696
aa(lp7
F3530.5
aF1.2584
aF3512.2
aF1.2363
aF3503.0
aF1.2269
aa(lp8
F3496.1
aF1.223
aF3467.2
aF1.1802
aF3566.3
aF1.0756
aa(lp9
F3611.9
aF1.0379
aF3620.4
aF1.0316
aF3641.1
aF1.0149
aa(lp10
F3717.4
aF0.96127
aF3846.5
aF0.88886
aF3998.7
aF0.8231
aa(lp11
F4112.1
aF0.78165
aF4151.8
aF0.76825
aF4178.4
aF0.7595
aa(lp12
F4190.7
aF0.75554
aF4197.5
aF0.75339
aF4204.9
aF0.75103
aa(lp13
F4218.5
aF0.74676
aF4253.4
aF0.73596
aF4337.4
aF0.71142
aa(lp14
F4409.1
aF0.69198
aF4518.1
aF0.66371
aF4602.0
aF0.64295
aa(lp15
F4722.9
aF0.61464
aF4768.4
aF0.60407
aF4775.4
aF0.60244
aa(lp16
F4807.6
aF0.59505
aF4887.7
aF0.57698
aF4921.9
aF0.56943
aa(lp17
F4935.9
aF0.5664
aF4953.8
aF0.56256
aF4988.4
aF0.55516
aa(lp18
F5005.9
aF0.55141
aF5019.6
aF0.54851
aF5115.2
aF0.52833
aa(lp19
F5248.4
aF0.4802
aF5279.8
aF0.4631
aF5284.2
aF0.46077
aa(lp20
F5288.3
aF0.45865
aF5295.1
aF0.4552
aF5323.4
aF0.44122
aa(lp21
F5389.2
aF0.40867
aF5416.1
aF0.39681
aF5420.9
aF0.39489
aa(lp22
F5435.5
aF0.38933
aF5483.9
aF0.37643
aF5510.0
aF0.37022
aa(lp23
F5529.2
aF0.36584
aF5601.3
aF0.35307
aF5790.5
aF0.32465
aa(lp24
F5866.8
aF0.31444
aF5878.0
aF0.31301
aF5896.4
aF0.31067
aa(lp25
F5935.8
aF0.30576
aF5986.0
aF2.0089
aF6053.5
aF1.9262
aa(lp26
F6058.5
aF1.8718
aF6067.8
aF1.7883
aF6181.1
aF1.7094
aa(lp27
F6216.6
aF1.6858
aF6222.7
aF1.6817
aF6229.4
aF1.6774
aa(lp28
F6241.6
aF1.6694
aF6307.0
aF1.6279
aF6489.9
aF1.5281
aa(lp29
F6565.6
aF1.4909
aF6579.9
aF1.484
aF6629.5
aF1.4604
aa(lp30
F6748.3
aF1.4046
aF6795.9
aF1.3826
aF6809.6
aF1.3763
aa(lp31
F6847.1
aF1.3593
aF6935.3
aF1.3201
aF6982.1
aF1.2997
aa(lp32
F7022.7
aF1.2824
aF7042.6
aF1.274
aF7056.1
aF1.2684
aa(lp33
F7068.5
aF1.2632
aF7088.7
aF1.2549
aF7101.0
aF1.2498
aa(lp34
F7114.4
aF1.2443
aF7125.0
aF1.2399
aF7133.2
aF1.2365
aa(lp35
F7139.8
aF1.2338
aF1770.4
aF1.2101
aF1825.3
aF1.1508
aa(lp36
F1845.0
aF1.1283
aF1849.1
aF1.1234
aF1857.3
aF1.1137
aa(lp37
F1874.5
aF1.0924
aF1846.4
aF1.083
aF1821.2
aF1.0784
aa(lp38
F1747.0
aF1.065
aF1566.4
aF1.0339
aF1220.3
aF0.97916
aa(lp39
F1302.0
aF0.93254
aF1234.5
aF0.91287
aF1239.9
aF0.88799
aa(lp40
F1242.8
aF0.86949
aF1144.1
aF0.86401
aF1004.8
aF0.86226
aa(lp41
F853.82
aF0.85265
aF832.96
aF0.82073
aF802.16
aF0.78359
aa(lp42
F769.97
aF0.74473
aF754.92
aF0.72518
aF743.13
aF0.70931
aa(lp43
F738.64
aF0.70311
aF712.18
aF0.70177
aF590.5
aF0.68315
aa(lp44
F560.76
aF0.63656
aF550.95
aF0.61883
aF382.64
aF0.61426
aa(lp45
F375.9
aF0.60235
aF362.64
aF0.57543
aF359.52
aF0.56521
aa(lp46
F359.94
aF0.56317
aF358.1
aF0.55614
aF354.47
aF0.53943
aa(lp47
F353.2
aF0.53208
aF352.65
aF0.52831
aF355.25
aF0.49246
aa(lp48
F373.9
aF0.41178
aF384.67
aF0.38555
aF381.34
aF0.38304
aa(lp49
F382.12
aF0.38099
aF383.33
aF0.3779
aF387.04
aF0.36882
aa(lp50
F830.32
aF0.34813
aF781.63
aF0.34054
aF753.02
aF0.33946
aa(lp51
F732.08
aF0.33868
aF703.47
aF0.33761
aF682.53
aF0.33683
aa(lp52
F653.92
aF0.33577
aF481.23
aF0.32946
aF375.18
aF0.31393
aa(lp53
F377.45
aF0.30813
aF377.84
aF0.30718
aF378.48
aF0.30563
aa(lp54
F379.87
aF0.30237
aF380.54
aF0.30085
aF380.94
aF0.29993
aa(lp55
F381.84
aF0.29793
aF383.93
aF0.29343
aF384.86
aF0.29148
aa(lp56
F385.29
aF0.29059
aF385.73
aF0.28971
aF386.49
aF0.28818
aa(lp57
F386.85
aF0.28746
aF386.86
aF0.28703
aF387.47
aF0.28521
aa(lp58
F389.82
aF0.28074
aF393.31
aF0.27443
aF400.76
aF0.26211
aa(lp59
F402.46
aF0.25749
aF399.47
aF0.25674
aF404.24
aF0.25064
aa(lp60
F417.15
aF0.23556
aF337.23
aF0.23021
aF105.71
aF0.22988
aa(lp61
F20.216
aF0.22469
aF18.479
aF0.21156
aF17.189
aF0.19993
aa(lp62
F15.575
aF0.18214
aF15.103
aF0.17596
aF15.069
aF0.1755
aa(lp63
F9.3416
aF0.17354
aF9.2825
aF0.17098
aF9.2311
aF0.1683
aa(lp64
F9.191
aF0.16567
aF9.1645
aF0.1639
aF9.1316
aF0.16117
aa(lp65
F9.1216
aF0.16004
aF9.1185
aF0.15963
aF9.104
aF0.15662
aa(lp66
F9.1576
aF0.14648
aF9.0827
aF0.13448
aF9.0918
aF0.12611
aa(lp67
F9.1064
aF0.12378
aF7.2368
aF0.12319
aF7.1564
aF0.12098
aa(lp68
F6.9299
aF0.11445
aF6.7412
aF0.10836
aF6.691
aF0.10658
aa(lp69
F6.6842
aF0.10633
aF6.6269
aF0.10425
aF6.9145
aF0.099062
aa(lp70
F7.0535
aF0.097165
aF7.0698
aF0.096947
aF7.1986
aF0.095256
aa(lp71
F7.5403
aF0.091025
aF7.2193
aF0.089452
aF6.3252
aF0.089282
aa(lp72
F2.2953
aF0.087957
aF2.585
aF0.084679
aF2.698
aF0.083453
aa(lp73
F2.7148
aF0.083274
aF2.729
aF0.080926
aF2.471
aF0.075086
aa(lp74
F2.3739
aF0.072973
aF1.6168
aF0.072671
aF1.6206
aF0.072108
aa(lp75
F1.624
aF0.071604
aF1.625
aF0.071457
aF1.6357
aF0.069969
aa(lp76
F1.6659
aF0.066232
aF1.678
aF0.064881
aF1.6792
aF0.064751
aa(lp77
F1.69
aF0.063647
aF1.699
aF0.06087
aF1.7022
aF0.059806
aa(lp78
F1.4861
aF0.059572
aF1.4821
aF0.058663
aF1.4725
aF0.056485
aa(lp79
F1.469
aF0.055674
aF1.4686
aF0.055567
aF1.4673
aF0.055279
aa(lp80
F1.4637
aF0.054433
aF1.4601
aF0.053604
aF1.4569
aF0.052905
aa(lp81
F1.4488
aF0.05122
aF1.4386
aF0.049123
aF1.4312
aF0.047589
aa(lp82
F1.4276
aF0.046437
aF1.423
aF0.044455
aF1.4214
aF0.043727
aa(lp83
F1.4212
aF0.043649
aF1.4206
aF0.043391
aF0.93623
aF0.042774
aa(lp84
F0.93758
aF0.042523
aF0.93799
aF0.042447
aF0.94656
aF0.040917
aa(lp85
F0.94711
aF0.037144
aF0.94618
aF0.035829
aF0.9461
aF0.035708
aa(lp86
F0.94578
aF0.035229
aF0.94477
aF0.033658
aF0.94366
aF0.031739
aa(lp87
F0.94869
aF0.030362
aF0.95017
aF0.03
aF0.95027
aF0.029975
aa(lp88
F0.9511
aF0.029774
aF0.9541
aF0.029067
aF0.95804
aF0.028176
aa(lp89
F0.96109
aF0.027517
aF0.96259
aF0.027202
aF0.96492
aF0.026717
aa(lp90
F0.96723
aF0.026244
aF0.96798
aF0.026093
aF0.96819
aF0.026052
aa(lp91
F0.96878
aF0.025933
aF0.9702
aF0.025652
aF0.9708
aF0.025536
aa(lp92
F0.971
aF0.025496
aF0.9722
aF0.025264
aF0.97643
aF0.024468
aa(lp93
F0.98194
aF0.023477
aF0.98617
aF0.022752
aF0.98742
aF0.022545
aa(lp94
F0.98773
aF0.022495
aF0.9897
aF0.022176
aF0.99475
aF0.021383
aa(lp95
F0.99667
aF0.02109
aF0.99688
aF0.021059
aF0.99759
aF0.020952
aa(lp96
F0.81533
aF0.020692
aF0.81578
aF0.020592
aF0.81585
aF0.020577
aa(lp97
F0.81728
aF0.02026
aF0.8211
aF0.01944
aF0.82254
aF0.01914
aa(lp98
F0.82267
aF0.019113
aF0.82338
aF0.018967
aF0.82583
aF0.018466
aa(lp99
F0.82895
aF0.017839
aF0.83132
aF0.017376
aF0.83195
aF0.017246
aa(lp100
F0.83204
aF0.017222
aF0.83273
aF0.017048
aF0.83451
aF0.016605
aa(lp101
F0.80464
aF0.016446
aF0.80464
aF0.016444
aF0.80468
aF0.016435
aa(lp102
F0.80525
aF0.016286
aF0.81002
aF0.015911
aF0.81314
aF0.015768
aa(lp103
F0.81362
aF0.015747
aF0.81735
aF0.015579
aF0.82706
aF0.015153
aa(lp104
F0.83079
aF0.014993
aF0.83126
aF0.014973
aF0.83378
aF0.014867
aa(lp105
F0.83937
aF0.014601
aF0.83984
aF0.014501
aF0.83987
aF0.014492
aa(lp106
F0.81545
aF0.014467
aF0.80628
aF0.014409
aF0.80641
aF0.014374
aa(lp107
F0.80654
aF0.014336
aF0.80661
aF0.014315
aF0.80668
aF0.014296
aa(lp108
F0.80715
aF0.014161
aF0.80884
aF0.013693
aF0.81103
aF0.013112
aa(lp109
F0.81267
aF0.012687
aF0.81331
aF0.012518
aF0.81391
aF0.012359
aa(lp110
F0.79428
aF0.01227
aF0.79588
aF0.012146
aF0.79821
aF0.011968
aa(lp111
F0.80054
aF0.011793
aF0.80214
aF0.011676
aF0.80374
aF0.011558
aa(lp112
F0.80825
aF0.011237
aF0.81291
aF0.010835
aF0.81645
aF0.010539
aa(lp113
F0.81831
aF0.010399
aF0.82077
aF0.01023
aF0.82297
aF0.010081
aa(lp114
F0.82652
aF0.0098474
aF0.82922
aF0.0096741
aF0.83302
aF0.0094351
aa(lp115
F0.83455
aF0.0093414
aF0.83239
aF0.0093193
aF0.8341
aF0.0092271
aa(lp116
F0.83838
aF0.009002
aF0.84077
aF0.0088787
aF0.84363
aF0.0087341
aa(lp117
F0.84648
aF0.0085925
aF0.84824
aF0.0085068
aF0.85081
aF0.0083851
aa(lp118
F0.85183
aF0.0083376
aF0.85203
aF0.0083281
aF0.8527
aF0.0082967
aa(lp119
F0.85434
aF0.008221
aF0.85505
aF0.0081883
aF0.85535
aF0.0081743
aa(lp120
F0.85637
aF0.0081278
aF0.85977
aF0.0079748
aF0.86419
aF0.0077807
aa(lp121
F0.86757
aF0.0076359
aF0.86854
aF0.0075948
aF0.86874
aF0.0075863
aa(lp122
F0.87044
aF0.0075152
aF0.875
aF0.0073334
aF0.87844
aF0.0072184
aa(lp123
F0.88253
aF0.0070843
aF0.88412
aF0.0070332
aF0.88436
aF0.0070255
aa(lp124
F0.88633
aF0.0069624
aF0.89147
aF0.006801
aF0.89444
aF0.0067097
aa(lp125
F0.89741
aF0.0066196
aF0.90076
aF0.0065198
aF0.9069
aF0.0063407
aa(lp126
F0.9097
aF0.0062608
aF0.91123
aF0.0062177
aF0.91188
aF0.0061996
aa(lp127
F0.91211
aF0.006193
aF0.91331
aF0.0061596
aF0.91783
aF0.006037
aa(lp128
F0.92492
aF0.0058521
aF0.93289
aF0.0056518
aF0.93989
aF0.0054816
aa(lp129
F0.94437
aF0.0053758
aF0.94654
aF0.0053253
aF0.95052
aF0.0052345
aa(lp130
F0.95569
aF0.0051188
aF0.95963
aF0.0050324
aF0.96076
aF0.0050079
aa(lp131
F0.96099
aF0.0050028
aF0.96129
aF0.0049964
aF0.96187
aF0.0049839
aa(lp132
F0.96217
aF0.0049775
aF0.9624
aF0.0049726
aF0.96346
aF0.00495
aa(lp133
F0.96734
aF0.0048678
aF0.97336
aF0.0047431
aF0.98001
aF0.0046071
aa(lp134
F0.98586
aF0.0044908
aF0.9896
aF0.004418
aF0.99165
aF0.0043787
aa(lp135
F0.99584
aF0.0042993
aF1.0019
aF0.0041985
aF1.0061
aF0.0041232
aa(lp136
F1.0081
aF0.0040863
aF1.0108
aF0.0040401
aF1.0118
aF0.0040219
aa(lp137
F1.0121
aF0.0040181
aF1.0131
aF0.0039996
aF1.0171
aF0.0039315
aa(lp138
F1.0233
aF0.0038285
aF1.0303
aF0.0037161
aF1.0364
aF0.0036201
aa(lp139
F1.0402
aF0.0035601
aF1.0423
aF0.0035283
aF1.0466
aF0.003465
aa(lp140
F1.0521
aF0.0033846
aF1.0563
aF0.0033245
aF1.0585
aF0.0032931
aa(lp141
F1.0626
aF0.0032351
aF1.068
aF0.0031614
aF1.0721
aF0.0031063
aa(lp142
F1.0739
aF0.0030823
aF1.0758
aF0.0030567
aF1.0782
aF0.0030254
aa(lp143
F1.0828
aF0.0029665
aF1.0863
aF0.002921
aF1.0915
aF0.0028559
aa(lp144
F1.0935
aF0.0028317
aF1.0937
aF0.0028292
aF1.0947
aF0.0028177
aa(lp145
F1.097
aF0.0027888
aF1.0989
aF0.0027663
aF1.1026
aF0.0027219
aa(lp146
F1.1074
aF0.0026652
aF1.1111
aF0.0026228
aF1.1127
aF0.0026048
aa(lp147
F1.1143
aF0.0025863
aF1.115
aF0.0025783
aF1.1153
aF0.0025751
aa(lp148
F1.1156
aF0.0025711
aF1.1163
aF0.0025636
aF1.1166
aF0.00256
aa(lp149
F1.1168
aF0.0025579
aF1.1179
aF0.0025458
aF1.1207
aF0.0025151
aa(lp150
F1.122
aF0.0025005
aF1.1228
aF0.0024912
aF1.1232
aF0.002487
aa(lp151
F1.1234
aF0.002485
aF1.125
aF0.0024676
aF1.1291
aF0.0024231
aa(lp152
F1.1307
aF0.0024063
aF1.1309
aF0.0024043
aF1.1314
aF0.0023985
aa(lp153
F1.1328
aF0.0023847
aF1.1333
aF0.002379
aF1.1335
aF0.002377
aa(lp154
F1.1354
aF0.0023571
aF1.1405
aF0.0023056
aF1.1423
aF0.0022864
aa(lp155
F1.1425
aF0.0022846
aF1.1462
aF0.0022482
aF1.1558
aF0.0021543
aa(lp156
F1.1627
aF0.0020886
aF1.1719
aF0.002003
aF1.1753
aF0.0019722
aa(lp157
F1.1755
aF0.0019707
aF1.1764
aF0.0019622
aF1.1797
aF0.0019327
aa(lp158
F1.184
aF0.0018951
aF1.1872
aF0.0018669
aF1.1893
aF0.0018491
aa(lp159
F1.1938
aF0.0018108
aF1.1995
aF0.0017624
aF1.2039
aF0.0017263
aa(lp160
F1.2061
aF0.0017077
aF1.2092
aF0.0016828
aF1.2109
aF0.0016692
aa(lp161
F1.2133
aF0.0016506
aF1.2169
aF0.0016221
aF1.2209
aF0.0015906
aa(lp162
F1.2244
aF0.0015634
aF1.2266
aF0.0015463
aF1.2272
aF0.0015416
aa(lp163
F1.2274
aF0.0015405
aF1.2287
aF0.0015304
aF1.2321
aF0.0015044
aa(lp164
F1.2331
aF0.0014947
aF1.2326
aF0.0014936
aF1.2334
aF0.0014873
aa(lp165
F1.2355
aF0.0014712
aF1.2363
aF0.001465
aF1.2365
aF0.0014639
aa(lp166
F1.2376
aF0.0014558
aF1.2414
aF0.001427
aF1.2461
aF0.0013906
aa(lp167
F1.2499
aF0.0013635
aF1.2508
aF0.001356
aF1.2508
aF0.001355
aa(lp168
F1.2515
aF0.0013495
aF1.2542
aF0.0013303
aF1.2577
aF0.0013058
aa(lp169
F1.2603
aF0.0012875
aF1.261
aF0.0012823
aF1.2612
aF0.0012814
aa(lp170
F1.262
aF0.0012757
aF1.2648
aF0.0012559
aF1.2685
aF0.0012306
aa(lp171
F1.2713
aF0.0012117
aF1.2727
aF0.0012018
aF1.2754
aF0.0011834
aa(lp172
F1.2789
aF0.00116
aF1.2815
aF0.0011424
aF1.2829
aF0.0011332
aa(lp173
F1.2854
aF0.0011162
aF1.2887
aF0.0010944
aF1.2912
aF0.0010781
aa(lp174
F1.2925
aF0.0010695
aF1.295
aF0.0010537
aF1.2981
aF0.0010335
aa(lp175
F1.3004
aF0.0010183
aF1.3015
aF0.0010115
aF1.3031
aF0.001001
aa(lp176
F1.3052
aF0.00098753
aF1.3068
aF0.00097735
aF1.3073
aF0.00097443
aa(lp177
F1.3074
aF0.0009738
aF1.3082
aF0.00096841
aF1.3104
aF0.0009545
aa(lp178
F1.3113
aF0.00094803
aF1.3119
aF0.00094409
aF1.3124
aF0.00094012
aa(lp179
F1.3134
aF0.00093324
aF1.3148
aF0.00092361
aF1.3177
aF0.00090449
aa(lp180
F1.3192
aF0.00089482
aF1.3203
aF0.00088725
aF1.3208
aF0.00088429
aa(lp181
F1.3209
aF0.00088374
aF1.3214
aF0.0008802
aF1.3233
aF0.00086785
aa(lp182
F1.3243
aF0.00085207
aF1.326
aF0.00084022
aF1.3265
aF0.00083691
aa(lp183
F1.3265
aF0.00083639
aF1.327
aF0.0008331
aF1.3287
aF0.00082159
aa(lp184
F1.3307
aF0.00080687
aF1.3323
aF0.00079582
aF1.3331
aF0.00079001
aa(lp185
F1.3346
aF0.00077925
aF1.3364
aF0.0007655
aF1.3378
aF0.00075517
aa(lp186
F1.3385
aF0.00074974
aF1.3398
aF0.00073968
aF1.3414
aF0.00072681
aa(lp187
F1.3427
aF0.00071715
aF1.3436
aF0.00070951
aF1.3452
aF0.00069586
aa(lp188
F1.3461
aF0.00068822
aF1.347
aF0.00068082
aF1.3473
aF0.00067763
aa(lp189
F1.3475
aF0.00067625
aF1.3475
aF0.0006756
aF1.3476
aF0.0006752
aa(lp190
F1.3481
aF0.00067048
aF1.3494
aF0.00065816
aF1.3499
aF0.00065366
aa(lp191
F1.3499
aF0.00065347
aF1.3502
aF0.00065079
aF1.3509
aF0.00064372
aa(lp192
F1.3511
aF0.00064102
aF1.3512
aF0.00064065
aF1.3514
aF0.00063804
aa(lp193
F1.3521
aF0.00063132
aF1.3528
aF0.00062366
aF1.354
aF0.00060968
aa(lp194
F1.3546
aF0.00060124
aF1.3553
aF0.00059202
aF1.3556
aF0.00058803
aa(lp195
F1.3558
aF0.00058623
aF1.3558
aF0.00058545
aF1.3558
aF0.00058512
aa(lp196
F1.356
aF0.00058255
aF1.3565
aF0.00057591
aF1.3566
aF0.0005735
aa(lp197
F1.3566
aF0.00057348
aF1.3566
aF0.00057347
aF1.3569
aF0.00056919
aa(lp198
F1.3575
aF0.00055772
aF1.3577
aF0.00055349
aF1.3578
aF0.00055319
aa(lp199
F1.3578
aF0.00055297
aF1.3578
aF0.00055266
aF1.3578
aF0.00055244
aa(lp200
F1.3578
aF0.00055214
aF1.3578
aF0.00055191
aF1.3578
aF0.00055161
aa(lp201
F1.3579
aF0.00055067
aF1.358
aF0.00054841
aF1.358
aF0.00054748
aa(lp202
F1.358
aF0.00054718
aF1.3581
aF0.00054521
aF1.3583
aF0.00054017
aa(lp203
F1.3584
aF0.00053705
aF1.3585
aF0.00053356
aF1.3586
aF0.00053223
aa(lp204
F1.3586
aF0.00053209
aF1.3587
aF0.00052851
aF1.3589
aF0.00051902
aa(lp205
F1.3589
aF0.00051165
aF1.3589
aF0.00049717
aF1.3585
aF0.00047907
aa(lp206
F1.3578
aF0.00046577
aF1.3573
aF0.00045783
aF1.3559
aF0.00044153
aa(lp207
F1.3535
aF0.00042138
aF1.3511
aF0.00040675
aF1.35
aF0.00040061
aa(lp208
F1.3482
aF0.00039195
aF1.3456
aF0.00038101
aF1.3434
aF0.00037289
aa(lp209
F1.3428
aF0.0003707
aF1.3427
aF0.00037052
aF1.3422
aF0.00036888
aa(lp210
F1.3403
aF0.00036263
aF1.337
aF0.00035318
aF1.333
aF0.00034288
aa(lp211
F1.3293
aF0.0003341
aF1.3267
aF0.00032861
aF1.3249
aF0.00032493
aa(lp212
F1.3201
aF0.00031579
aF1.312
aF0.00030221
aF1.302
aF0.0002878
aa(lp213
F1.2923
aF0.00027579
aF1.2857
aF0.00026843
aF1.284
aF0.00026659
aa(lp214
F1.2839
aF0.00026647
aF1.2815
aF0.00026402
aF1.275
aF0.00025756
aa(lp215
F1.2706
aF0.00025351
aF1.2633
aF0.00024711
aF1.2532
aF0.00023907
aa(lp216
F1.2452
aF0.00023315
aF1.2411
aF0.00023031
aF1.234
aF0.00022554
aa(lp217
F1.2245
aF0.00021951
aF1.217
aF0.00021503
aF1.2116
aF0.00021196
aa(lp218
F1.2022
aF0.00020687
aF1.1909
aF0.00020116
aF1.1689
aF0.00019104
aa(lp219
F1.1557
aF0.00018556
aF1.1423
aF0.00018035
aF1.1373
aF0.00017847
aa(lp220
F1.1371
aF0.0001784
aF1.1317
aF0.00017642
aF1.1167
aF0.00017124
aa(lp221
F1.1073
aF0.0001682
aF1.092
aF0.0001635
aF1.0677
aF0.00015653
aa(lp222
F1.0392
aF0.00014915
aF1.0131
aF0.00014302
aF0.99596
aF0.00013927
aa(lp223
F0.9867
aF0.00013734
aF0.96799
aF0.00013358
aF0.94309
aF0.0001289
aa(lp224
F0.92359
aF0.00012546
aF0.91824
aF0.00012456
aF0.918
aF0.00012452
aa(lp225
F0.91114
aF0.00012337
aF0.88363
aF0.00011898
aF0.83985
aF0.00011258
aa(lp226
F0.78875
aF0.00010595
aF0.74261
aF0.00010055
aF0.71266
aF9.7302e-05
aa(lp227
F0.70499
aF9.6507e-05
aF0.70472
aF9.6479e-05
aF0.70246
aF9.6247e-05
aa(lp228
F0.69376
aF9.5363e-05
aF0.68021
aF9.4011e-05
aF0.66489
aF9.2519e-05
aa(lp229
F0.65131
aF9.1228e-05
aF0.6426
aF9.0414e-05
aF0.63361
aF8.9586e-05
aa(lp230
F0.61496
aF8.7908e-05
aF0.60424
aF8.6965e-05
aF0.58954
aF8.5704e-05
aa(lp231
F0.57019
aF8.4101e-05
aF0.55542
aF8.2904e-05
aF0.54473
aF8.2052e-05
aa(lp232
F0.51947
aF8.0084e-05
aF0.48672
aF7.7627e-05
aF0.46155
aF7.5824e-05
aa(lp233
F0.44487
aF7.4664e-05
aF0.41793
aF7.2827e-05
aF0.40808
aF7.2167e-05
aa(lp234
F0.40779
aF7.2149e-05
aF0.40609
aF7.2036e-05
aF0.40175
aF7.1747e-05
aa(lp235
F0.40006
aF7.1635e-05
aF0.3998
aF7.1618e-05
aF0.39908
aF7.157e-05
aa(lp236
F0.39737
aF7.1457e-05
aF0.39664
aF7.1409e-05
aF0.39652
aF7.1401e-05
aa(lp237
F0.3965
aF7.1399e-05
aF0.39402
aF7.1236e-05
aF0.38484
aF7.0632e-05
aa(lp238
F0.37294
aF6.9858e-05
aF0.36388
aF6.9274e-05
aF0.35667
aF6.8817e-05
aa(lp239
F0.34355
aF6.8001e-05
aF0.33299
aF6.7348e-05
aF0.31733
aF6.6383e-05
aa(lp240
F0.30889
aF6.5866e-05
aF0.29854
aF6.5235e-05
aF0.28522
aF6.4426e-05
aa(lp241
F0.27516
aF6.3818e-05
aF0.26721
aF6.3338e-05
aF0.24619
aF6.2085e-05
aa(lp242
F0.21471
aF6.0215e-05
aF0.18144
aF5.8218e-05
aF0.15459
aF5.6545e-05
aa(lp243
F0.13879
aF5.5516e-05
aF0.13503
aF5.5261e-05
aF0.13487
aF5.525e-05
aa(lp244
F0.13133
aF5.5005e-05
aF0.11898
aF5.4118e-05
aF0.10506
aF5.2999e-05
aa(lp245
F0.09657
aF5.2169e-05
aF0.087304
aF5.1737e-05
aF0.088279
aF5.0941e-05
aa(lp246
F0.089562
aF4.9937e-05
aF0.090553
aF4.9193e-05
aF0.09109
aF4.8799e-05
aa(lp247
F0.092107
aF4.8067e-05
aF0.093448
aF4.7144e-05
aF0.094485
aF4.6459e-05
aa(lp248
F0.094768
aF4.6277e-05
aF0.09478
aF4.6268e-05
aF0.095121
aF4.6051e-05
aa(lp249
F0.096388
aF4.5263e-05
aF0.098059
aF4.4275e-05
aF0.099351
aF4.3547e-05
aa(lp250
F0.099855
aF4.3271e-05
aF0.10049
aF4.2929e-05
aF0.10148
aF4.2407e-05
aa(lp251
F0.10261
aF4.1833e-05
aF0.10362
aF4.1338e-05
aF0.10427
aF4.1027e-05
aa(lp252
F0.10472
aF4.0816e-05
aF0.1058
aF4.0318e-05
aF0.10722
aF3.9688e-05
aa(lp253
F0.10831
aF3.922e-05
aF0.10919
aF3.887e-05
aF0.11077
aF3.8263e-05
aa(lp254
F0.11135
aF3.8044e-05
aF0.11137
aF3.8039e-05
aF0.11186
aF3.7857e-05
aa(lp255
F0.11319
aF3.7377e-05
aF0.11392
aF3.7121e-05
aF0.11488
aF3.679e-05
aa(lp256
F0.11638
aF3.6288e-05
aF0.11809
aF3.5741e-05
aF0.1196
aF3.5272e-05
aa(lp257
F0.12058
aF3.4978e-05
aF0.12115
aF3.481e-05
aF0.12248
aF3.4429e-05
aa(lp258
F0.12455
aF3.3857e-05
aF0.12691
aF3.3237e-05
aF0.12902
aF3.2713e-05
aa(lp259
F0.13038
aF3.2387e-05
aF0.13072
aF3.2306e-05
aF0.13073
aF3.2302e-05
aa(lp260
F0.13101
aF3.2237e-05
aF0.13212
aF3.1983e-05
aF0.13385
aF3.1597e-05
aa(lp261
F0.13581
aF3.1177e-05
aF0.13756
aF3.0817e-05
aF0.13869
aF3.0591e-05
aa(lp262
F0.13925
aF3.0482e-05
aF0.14038
aF3.0265e-05
aF0.14214
aF2.9937e-05
aa(lp263
F0.14414
aF2.9578e-05
aF0.14591
aF2.9271e-05
aF0.14705
aF2.9078e-05
aa(lp264
F0.14734
aF2.903e-05
aF0.14736
aF2.9027e-05
aF0.14773
aF2.8967e-05
aa(lp265
F0.14875
aF2.8801e-05
aF0.15103
aF2.8442e-05
aF0.15333
aF2.8097e-05
aa(lp266
F0.15469
aF2.7899e-05
aF0.15657
aF2.7633e-05
aF0.15784
aF2.7458e-05
aa(lp267
F0.1591
aF2.729e-05
aF0.15994
aF2.7179e-05
aF0.16077
aF2.7073e-05
aa(lp268
F0.16188
aF2.6932e-05
aF0.16286
aF2.6809e-05
aF0.1643
aF2.6633e-05
aa(lp269
F0.16589
aF2.6444e-05
aF0.16879
aF2.611e-05
aF0.16986
aF2.5991e-05
aa(lp270
F0.16987
aF2.599e-05
aF0.16987
aF2.5989e-05
aF0.16995
aF2.598e-05
aa(lp271
F0.17016
aF2.5956e-05
aF0.17025
aF2.5946e-05
aF0.17026
aF2.5944e-05
aa(lp272
F0.17087
aF2.5875e-05
aF0.17252
aF2.5692e-05
aF0.17314
aF2.5625e-05
aa(lp273
F0.17315
aF2.5623e-05
aF0.17377
aF2.5557e-05
aF0.17606
aF2.5319e-05
aa(lp274
F0.17908
aF2.502e-05
aF0.1814
aF2.4799e-05
aF0.18267
aF2.4683e-05
aa(lp275
F0.18512
aF2.4467e-05
aF0.18835
aF2.4196e-05
aF0.19083
aF2.3996e-05
aa(lp276
F0.19311
aF2.382e-05
aF0.1997
aF2.3347e-05
aF0.21006
aF2.2687e-05
aa(lp277
F0.22208
aF2.2041e-05
aF0.23305
aF2.1543e-05
aF0.24026
aF2.1254e-05
aa(lp278
F0.24396
aF2.1117e-05
aF0.25163
aF2.0852e-05
aF0.26383
aF2.048e-05
aa(lp279
F0.27799
aF2.011e-05
aF0.29086
aF1.9823e-05
aF0.29937
aF1.9655e-05
aa(lp280
F0.30538
aF1.9545e-05
aF0.31606
aF1.9365e-05
aF0.32227
aF1.9269e-05
aa(lp281
F0.32845
aF1.9179e-05
aF0.33181
aF1.9132e-05
aF0.33477
aF1.9092e-05
aa(lp282
F0.33732
aF1.9058e-05
aF0.34135
aF1.9007e-05
aF0.34283
aF1.8988e-05
aa(lp283
F0.34415
aF1.8972e-05
aF0.34776
aF1.8928e-05
aF0.35116
aF1.8888e-05
aa(lp284
F0.35901
aF1.88e-05
aF0.36938
aF1.8693e-05
aF0.37742
aF1.8616e-05
aa(lp285
F0.38058
aF1.8587e-05
aF0.38435
aF1.8553e-05
aF0.38929
aF1.851e-05
aa(lp286
F0.3931
aF1.8479e-05
aF0.39927
aF1.8429e-05
aF0.42015
aF1.8277e-05
aa(lp287
F0.45371
aF1.8076e-05
aF0.49321
aF1.7891e-05
aF0.52955
aF1.7757e-05
aa(lp288
F0.55349
aF1.7683e-05
aF0.56161
aF1.766e-05
aF0.56954
aF1.7638e-05
aa(lp289
F0.57997
aF1.7611e-05
aF0.58803
aF1.7591e-05
aF0.59045
aF1.7586e-05
aa(lp290
F0.59141
aF1.7583e-05
aF0.59267
aF1.758e-05
aF0.59364
aF1.7578e-05
aa(lp291
F0.59539
aF1.7574e-05
aF0.59948
aF1.7565e-05
aF0.60545
aF1.7551e-05
aa(lp292
F0.61776
aF1.7525e-05
aF0.6223
aF1.7516e-05
aF0.62231
aF1.7516e-05
aa(lp293
F0.62233
aF1.7516e-05
aF0.62234
aF1.7516e-05
aF0.62526
aF1.751e-05
aa(lp294
F0.63325
aF1.7494e-05
aF0.63745
aF1.7486e-05
aF0.64091
aF1.748e-05
aa(lp295
F0.64429
aF1.7474e-05
aF0.65221
aF1.7459e-05
aF0.6626
aF1.7441e-05
aa(lp296
F0.67062
aF1.7428e-05
aF0.67697
aF1.7418e-05
aF0.68851
aF1.74e-05
aa(lp297
F0.69687
aF1.7388e-05
aF0.7135
aF1.7365e-05
aF0.7398
aF1.7332e-05
aa(lp298
F0.77009
aF1.7298e-05
aF0.79697
aF1.7271e-05
aF0.81442
aF1.7254e-05
aa(lp299
F0.82303
aF1.7247e-05
aF0.84015
aF1.7232e-05
aF0.86718
aF1.7211e-05
aa(lp300
F0.89824
aF1.7189e-05
aF0.92621
aF1.7172e-05
aF0.94441
aF1.7161e-05
aa(lp301
F0.95656
aF1.7154e-05
aF0.97749
aF1.7143e-05
aF0.98575
aF1.7139e-05
aa(lp302
F0.98722
aF1.7138e-05
aF0.98814
aF1.7138e-05
aF0.98918
aF1.7137e-05
aa(lp303
F0.99143
aF1.7136e-05
aF0.99653
aF1.7134e-05
aF1.0031
aF1.7131e-05
aa(lp304
F1.0159
aF1.7125e-05
aF1.0212
aF1.7122e-05
aF1.0225
aF1.7122e-05
aa(lp305
F1.0234
aF1.7121e-05
aF1.0247
aF1.7121e-05
aF1.0275
aF1.712e-05
aa(lp306
F1.0337
aF1.7117e-05
aF1.0377
aF1.7115e-05
aF1.0424
aF1.7113e-05
aa(lp307
F1.0441
aF1.7112e-05
aF1.0442
aF1.7112e-05
aF1.0442
aF1.7112e-05
aa(lp308
F1.0442
aF1.7112e-05
aF1.0476
aF1.7111e-05
aF1.0617
aF1.7105e-05
aa(lp309
F1.0845
aF1.7097e-05
aF1.1125
aF1.7087e-05
aF1.1409
aF1.7077e-05
aa(lp310
F1.1646
aF1.707e-05
aF1.1794
aF1.7066e-05
aF1.1948
aF1.7061e-05
aa(lp311
F1.2428
aF1.7049e-05
aF1.3196
aF1.7032e-05
aF1.4092
aF1.7016e-05
aa(lp312
F1.491
aF1.7003e-05
aF1.5448
aF1.6996e-05
aF1.5606
aF1.6994e-05
aa(lp313
F1.5686
aF1.6993e-05
aF1.5766
aF1.6992e-05
aF1.5923
aF1.6991e-05
aa(lp314
F1.6162
aF1.6988e-05
aF1.6448
aF1.6985e-05
aF1.6553
aF1.6984e-05
aa(lp315
F1.6554
aF1.6984e-05
aF1.66
aF1.6983e-05
aF1.6727
aF1.6982e-05
aa(lp316
F1.6798
aF1.6982e-05
aF1.6867
aF1.6981e-05
aF1.695
aF1.698e-05
aa(lp317
F1.7192
aF1.6978e-05
aF1.7596
aF1.6974e-05
aF1.8113
aF1.697e-05
aa(lp318
F1.8676
aF1.6966e-05
aF1.9208
aF1.6963e-05
aF1.9636
aF1.696e-05
aa(lp319
F1.9896
aF1.6959e-05
aF2.0
aF1.6958e-05
aF2.0111
aF1.6957e-05
aa(lp320
F2.0623
aF1.6955e-05
aF2.194
aF1.6948e-05
aF2.2614
aF1.6946e-05
aa(lp321
F2.3245
aF1.6943e-05
aF2.3885
aF1.6941e-05
aF2.4073
aF1.6941e-05
aa(lp322
F2.4074
aF1.6941e-05
aF2.4231
aF1.694e-05
aF2.4663
aF1.6939e-05
aa(lp323
F2.4822
aF1.6938e-05
aF2.4823
aF1.6938e-05
aF2.7132
aF1.6932e-05
aa(lp324
F3.3947
aF1.6922e-05
aF3.9547
aF1.6917e-05
aF4.8083
aF1.6912e-05
aa(lp325
F5.5122
aF1.691e-05
aF6.5909
aF1.6908e-05
aF7.4778
aF1.6907e-05
aa(lp326
F8.8395
aF1.6906e-05
aF9.8977
aF1.6905e-05
aF11.424
aF1.6905e-05
aa(lp327
F12.136
aF1.6904e-05
aF12.479
aF1.6904e-05
aF13.146
aF1.6904e-05
aa(lp328
F15.387
aF1.6904e-05
aF19.026
aF1.6904e-05
aF23.116
aF1.6903e-05
aa(lp329
F26.185
aF1.6903e-05
aF27.909
aF1.6903e-05
aF31.633
aF1.6903e-05
aa(lp330
F37.657
aF1.6903e-05
aF44.446
aF1.6903e-05
aF49.583
aF1.6903e-05
aa(lp331
F52.379
aF1.6903e-05
aF58.237
aF1.6903e-05
aF67.843
aF1.6903e-05
aa(lp332
F78.902
aF1.6903e-05
aF87.454
aF1.6903e-05
aF92.178
aF1.6903e-05
aa(lp333
F102.23
aF1.6903e-05
aF119.16
aF1.6903e-05
aF139.26
aF1.6903e-05
aa(lp334
F155.19
aF1.6903e-05
aF164.11
aF1.6903e-05
aF183.33
aF1.6903e-05
aa(lp335
F216.26
aF1.6903e-05
aF255.92
aF1.6903e-05
aF287.55
aF1.6903e-05
aa(lp336
F305.28
aF1.6903e-05
aF343.44
aF1.6903e-05
aF408.36
aF1.6903e-05
aa(lp337
F485.38
aF1.6903e-05
aF545.67
aF1.6903e-05
aF579.02
aF1.6903e-05
aa(lp338
F649.64
aF1.6903e-05
aF766.22
aF1.6903e-05
aF898.97
aF1.6903e-05
aa(lp339
F998.97
aF1.6903e-05
aF1052.9
aF1.6903e-05
aF1164.0
aF1.6903e-05
aa(lp340
F1338.8
aF1.6903e-05
aF1526.1
aF1.6903e-05
aF1659.7
aF1.6903e-05
aa(lp341
F1729.2
aF1.6903e-05
aF1867.0
aF1.6903e-05
aF2070.3
aF1.6903e-05
aa(lp342
F2270.6
aF1.6903e-05
aF2402.8
aF1.6903e-05
aF2468.2
aF1.6903e-05
aa(lp343
F2591.0
aF1.6903e-05
aF2755.0
aF1.6903e-05
aF2895.8
aF1.6903e-05
aa(lp344
F2976.4
aF1.6903e-05
aF3012.1
aF1.6903e-05
aF3071.3
aF1.6903e-05
aa(lp345
F3130.5
aF1.6903e-05
aF3156.5
aF1.6903e-05
aF3155.2
aF1.6903e-05
aa(lp346
F3148.8
aF1.6903e-05
aF3125.4
aF1.6903e-05
aF3066.9
aF1.6903e-05
aa(lp347
F2982.8
aF1.6903e-05
aF2913.0
aF1.6903e-05
aF2874.0
aF1.6903e-05
aa(lp348
F2792.1
aF1.6903e-05
aF2661.6
aF1.6903e-05
aF2523.1
aF1.6903e-05
aa(lp349
F2426.2
aF1.6903e-05
aF2376.5
aF1.6903e-05
aF2279.6
aF1.6903e-05
aa(lp350
F2140.4
aF1.6903e-05
aF2007.1
aF1.6903e-05
aF1920.8
aF1.6903e-05
aa(lp351
F1878.3
aF1.6903e-05
aF1798.8
aF1.6903e-05
aF1691.2
aF1.6903e-05
aa(lp352
F1595.0
aF1.6903e-05
aF1536.0
aF1.6903e-05
aF1507.9
aF1.6903e-05
aa(lp353
F1457.0
aF1.6903e-05
aF1391.7
aF1.6903e-05
aF1337.2
aF1.6903e-05
aa(lp354
F1305.8
aF1.6903e-05
aF1291.5
aF1.6903e-05
aF1266.8
aF1.6903e-05
aa(lp355
F1238.0
aF1.6903e-05
aF1217.3
aF1.6903e-05
aF1207.4
aF1.6903e-05
aa(lp356
F1203.6
aF1.6903e-05
aF1198.5
aF1.6903e-05
aF1196.1
aF1.6903e-05
aa(lp357
F1199.2
aF1.6903e-05
aF1204.1
aF1.6903e-05
aF1205.7
aF1.6903e-05
aa.