(lp0
(lp1
F551.19
aF0.069141
aF566.65
aF0.068574
aF593.34
aF0.067709
aa(lp2
F631.39
aF0.066736
aF678.99
aF0.06582
aF726.36
aF0.065067
aa(lp3
F747.04
aF0.060571
aF756.03
aF0.056621
aF759.77
aF0.054709
aa(lp4
F764.0
aF0.052085
aF765.4
aF0.051042
aF765.87
aF0.050712
aa(lp5
F766.63
aF0.050123
aF768.7
aF0.048408
aF770.69
aF0.046279
aa(lp6
F772.15
aF0.044725
aF772.64
aF0.044221
aF772.92
aF0.043945
aa(lp7
F773.29
aF0.04357
aF773.97
aF0.042831
aF720.8
aF0.042516
aa(lp8
F574.82
aF0.042385
aF523.01
aF0.04095
aF565.13
aF0.037442
aa(lp9
F581.85
aF0.036173
aF584.76
aF0.035959
aF592.24
aF0.0354
aa(lp10
F617.66
aF0.033591
aF657.81
aF0.031146
aF699.34
aF0.028921
aa(lp11
F728.01
aF0.027515
aF737.73
aF0.027061
aF744.2
aF0.026764
aa(lp12
F747.17
aF0.026629
aF748.78
aF0.026556
aF750.56
aF0.026476
aa(lp13
F753.81
aF0.026331
aF762.13
aF0.025964
aF781.69
aF0.025129
aa(lp14
F797.89
aF0.024467
aF822.47
aF0.023504
aF841.35
aF0.022795
aa(lp15
F868.33
aF0.021828
aF877.94
aF0.021466
aF877.5
aF0.021411
aa(lp16
F884.16
aF0.021158
aF902.76
aF0.020539
aF910.75
aF0.02028
aa(lp17
F913.98
aF0.020176
aF918.12
aF0.020045
aF926.2
aF0.019791
aa(lp18
F930.33
aF0.019662
aF933.55
aF0.019562
aF956.48
aF0.018869
aa(lp19
F991.83
aF0.017213
aF1001.5
aF0.016623
aF1002.9
aF0.016542
aa(lp20
F1004.1
aF0.016469
aF1006.1
aF0.01635
aF1014.6
aF0.015867
aa(lp21
F1035.5
aF0.01474
aF1043.7
aF0.014328
aF1045.1
aF0.014262
aa(lp22
F1049.2
aF0.014068
aF1059.4
aF0.01362
aF1064.6
aF0.013404
aa(lp23
F1068.4
aF0.013252
aF1080.7
aF0.012807
aF1111.1
aF0.011814
aa(lp24
F1123.0
aF0.011457
aF1124.7
aF0.011407
aF1127.6
aF0.011325
aa(lp25
F1133.6
aF0.011153
aF1141.2
aF0.28549
aF1154.4
aF0.27362
aa(lp26
F1161.6
aF0.26581
aF1173.1
aF0.25383
aF1189.5
aF0.24251
aa(lp27
F1194.6
aF0.23912
aF1195.4
aF0.23855
aF1196.4
aF0.23792
aa(lp28
F1198.1
aF0.23678
aF1207.5
aF0.23083
aF1232.2
aF0.21652
aa(lp29
F1242.1
aF0.2112
aF1244.0
aF0.21022
aF1250.6
aF0.20684
aa(lp30
F1266.5
aF0.19885
aF1273.0
aF0.1957
aF1274.9
aF0.1948
aa(lp31
F1280.0
aF0.19237
aF1292.1
aF0.18676
aF1298.6
aF0.18384
aa(lp32
F1304.2
aF0.18137
aF1306.9
aF0.18017
aF1308.8
aF0.17937
aa(lp33
F1310.5
aF0.17863
aF1313.4
aF0.17743
aF1315.1
aF0.17671
aa(lp34
F1316.9
aF0.17592
aF1318.4
aF0.17529
aF1319.6
aF0.17481
aa(lp35
F1320.5
aF0.17442
aF188.55
aF0.17104
aF191.98
aF0.16257
aa(lp36
F193.26
aF0.15935
aF193.53
aF0.15865
aF194.05
aF0.15727
aa(lp37
F195.12
aF0.15422
aF192.24
aF0.15289
aF189.76
aF0.15223
aa(lp38
F182.43
aF0.15032
aF164.4
aF0.14587
aF129.88
aF0.13807
aa(lp39
F136.28
aF0.13143
aF130.6
aF0.12862
aF131.21
aF0.12508
aa(lp40
F131.68
aF0.12245
aF123.86
aF0.12166
aF112.75
aF0.12142
aa(lp41
F100.81
aF0.12005
aF99.894
aF0.1155
aF98.515
aF0.11022
aa(lp42
F96.887
aF0.10469
aF96.1
aF0.10192
aF95.467
aF0.099661
aa(lp43
F95.223
aF0.098781
aF86.078
aF0.09859
aF46.637
aF0.095946
aa(lp44
F45.922
aF0.089332
aF45.724
aF0.086817
aF22.318
aF0.086169
aa(lp45
F21.983
aF0.08448
aF21.297
aF0.080663
aF21.132
aF0.079214
aa(lp46
F22.215
aF0.078925
aF22.086
aF0.07793
aF21.808
aF0.075563
aa(lp47
F21.697
aF0.074522
aF21.644
aF0.073988
aF21.759
aF0.068913
aa(lp48
F22.583
aF0.05751
aF23.059
aF0.053809
aF22.092
aF0.053455
aa(lp49
F22.151
aF0.053165
aF22.242
aF0.052729
aF22.519
aF0.051449
aa(lp50
F43.492
aF0.048533
aF41.319
aF0.047463
aF39.996
aF0.047311
aa(lp51
F39.027
aF0.047201
aF37.704
aF0.04705
aF36.735
aF0.046941
aa(lp52
F35.412
aF0.046791
aF27.42
aF0.045902
aF22.681
aF0.043717
aa(lp53
F22.867
aF0.042901
aF22.898
aF0.042767
aF22.948
aF0.042549
aa(lp54
F23.054
aF0.04209
aF23.103
aF0.041876
aF23.133
aF0.041747
aa(lp55
F23.199
aF0.041465
aF23.346
aF0.040832
aF23.41
aF0.040558
aa(lp56
F23.439
aF0.040434
aF23.468
aF0.040309
aF23.518
aF0.040094
aa(lp57
F23.542
aF0.039994
aF23.397
aF0.039933
aF23.204
aF0.039677
aa(lp58
F23.347
aF0.039049
aF23.516
aF0.038162
aF23.819
aF0.036431
aa(lp59
F23.932
aF0.035783
aF23.877
aF0.035677
aF24.102
aF0.034821
aa(lp60
F24.761
aF0.032705
aF21.064
aF0.031954
aF10.256
aF0.031908
aa(lp61
F6.2668
aF0.031181
aF6.1748
aF0.02934
aF6.1313
aF0.027712
aa(lp62
F6.0902
aF0.025223
aF6.0831
aF0.024359
aF6.0827
aF0.024295
aa(lp63
F3.8645
aF0.024021
aF3.9121
aF0.023663
aF3.9637
aF0.023289
aa(lp64
F4.0162
aF0.022922
aF4.0516
aF0.022675
aF4.108
aF0.022294
aa(lp65
F4.1322
aF0.022135
aF4.1411
aF0.022078
aF4.2077
aF0.021658
aa(lp66
F4.4559
aF0.020243
aF4.6415
aF0.01857
aF4.7794
aF0.017405
aa(lp67
F4.8215
aF0.01708
aF3.9024
aF0.016998
aF3.8813
aF0.016691
aa(lp68
F3.8182
aF0.015781
aF3.7591
aF0.014935
aF3.7417
aF0.014687
aa(lp69
F3.7393
aF0.014653
aF3.7189
aF0.014364
aF3.9244
aF0.013643
aa(lp70
F4.0189
aF0.013379
aF4.03
aF0.013349
aF4.1167
aF0.013115
aa(lp71
F4.3433
aF0.012527
aF4.1493
aF0.012309
aF3.5954
aF0.012286
aa(lp72
F1.4609
aF0.012102
aF1.6783
aF0.011647
aF1.7627
aF0.011477
aa(lp73
F1.7751
aF0.011453
aF1.7905
aF0.011127
aF1.617
aF0.010318
aa(lp74
F1.5534
aF0.010026
aF0.99768
aF0.009984
aF1.0017
aF0.0099061
aa(lp75
F1.0053
aF0.0098364
aF1.0064
aF0.009816
aF1.0173
aF0.00961
aa(lp76
F1.0464
aF0.0090933
aF1.0577
aF0.0089065
aF1.0588
aF0.0088885
aa(lp77
F1.0704
aF0.0087359
aF1.0984
aF0.0083521
aF1.1078
aF0.0082052
aa(lp78
F0.92753
aF0.0081729
aF0.93012
aF0.0080473
aF0.93674
aF0.0077465
aa(lp79
F0.93933
aF0.0076346
aF0.93968
aF0.0076199
aF0.94062
aF0.0075801
aa(lp80
F0.94344
aF0.0074634
aF0.94629
aF0.007349
aF0.94673
aF0.0072525
aa(lp81
F0.94351
aF0.0070201
aF0.93943
aF0.0067309
aF0.93619
aF0.0065195
aa(lp82
F0.93559
aF0.0063607
aF0.93686
aF0.0060876
aF0.93738
aF0.0059874
aa(lp83
F0.93744
aF0.0059766
aF0.93763
aF0.0059412
aF0.89789
aF0.0058561
aa(lp84
F0.89828
aF0.0058216
aF0.8984
aF0.0058111
aF0.90092
aF0.0056005
aa(lp85
F0.882
aF0.0050815
aF0.874
aF0.0049008
aF0.87325
aF0.0048841
aa(lp86
F0.87029
aF0.0048183
aF0.86044
aF0.0046024
aF0.84818
aF0.0043389
aa(lp87
F0.84958
aF0.0041498
aF0.85018
aF0.0041
aF0.85023
aF0.0040967
aa(lp88
F0.85058
aF0.0040691
aF0.85192
aF0.0039721
aF0.85385
aF0.0038498
aa(lp89
F0.85545
aF0.0037594
aF0.85628
aF0.0037161
aF0.85755
aF0.0036497
aa(lp90
F0.85876
aF0.0035848
aF0.85916
aF0.0035641
aF0.85927
aF0.0035585
aa(lp91
F0.85959
aF0.0035423
aF0.86037
aF0.0035037
aF0.8607
aF0.0034878
aa(lp92
F0.86081
aF0.0034823
aF0.86148
aF0.0034505
aF0.86388
aF0.0033415
aa(lp93
F0.86711
aF0.0032057
aF0.86959
aF0.0031064
aF0.87032
aF0.003078
aa(lp94
F0.8705
aF0.0030711
aF0.87164
aF0.0030275
aF0.8745
aF0.0029189
aa(lp95
F0.87554
aF0.0028788
aF0.87565
aF0.0028746
aF0.87603
aF0.0028599
aa(lp96
F0.85333
aF0.0028243
aF0.85374
aF0.0028107
aF0.8538
aF0.0028086
aa(lp97
F0.85508
aF0.0027653
aF0.8582
aF0.0026531
aF0.85925
aF0.0026121
aa(lp98
F0.85935
aF0.0026083
aF0.85984
aF0.0025883
aF0.861
aF0.0025199
aa(lp99
F0.86167
aF0.0024341
aF0.86193
aF0.0023708
aF0.86157
aF0.0023531
aa(lp100
F0.86127
aF0.0023498
aF0.85902
aF0.0023259
aF0.85301
aF0.0022655
aa(lp101
F0.84635
aF0.0022437
aF0.846
aF0.0022435
aF0.84586
aF0.0022422
aa(lp102
F0.84382
aF0.0022218
aF0.84605
aF0.0021706
aF0.84981
aF0.0021512
aa(lp103
F0.85038
aF0.0021482
aF0.85483
aF0.0021253
aF0.86625
aF0.0020671
aa(lp104
F0.87056
aF0.0020453
aF0.87111
aF0.0020426
aF0.874
aF0.0020281
aa(lp105
F0.87937
aF0.0019917
aF0.88016
aF0.0019782
aF0.88023
aF0.0019769
aa(lp106
F0.84057
aF0.0019735
aF0.82579
aF0.0019656
aF0.82607
aF0.0019608
aa(lp107
F0.82638
aF0.0019556
aF0.82655
aF0.0019528
aF0.82671
aF0.0019502
aa(lp108
F0.8278
aF0.0019318
aF0.83146
aF0.0018679
aF0.83581
aF0.0017886
aa(lp109
F0.83886
aF0.0017306
aF0.83953
aF0.0017076
aF0.84017
aF0.0016859
aa(lp110
F0.83692
aF0.0016737
aF0.8373
aF0.0016569
aF0.83791
aF0.0016326
aa(lp111
F0.83856
aF0.0016087
aF0.83904
aF0.0015927
aF0.83954
aF0.0015767
aa(lp112
F0.84108
aF0.0015329
aF0.84216
aF0.0014781
aF0.84316
aF0.0014378
aa(lp113
F0.84382
aF0.0014187
aF0.84484
aF0.0013957
aF0.8458
aF0.0013754
aa(lp114
F0.84743
aF0.0013436
aF0.84874
aF0.00132
aF0.85069
aF0.0012874
aa(lp115
F0.8515
aF0.0012747
aF0.8458
aF0.0012717
aF0.84706
aF0.0012591
aa(lp116
F0.8503
aF0.0012285
aF0.85217
aF0.0012117
aF0.85444
aF0.001192
aa(lp117
F0.85675
aF0.0011727
aF0.85819
aF0.0011611
aF0.86033
aF0.0011445
aa(lp118
F0.86119
aF0.001138
aF0.86136
aF0.0011367
aF0.86189
aF0.0011325
aa(lp119
F0.86315
aF0.0011222
aF0.86371
aF0.0011177
aF0.86395
aF0.0011158
aa(lp120
F0.86477
aF0.0011095
aF0.86755
aF0.0010887
aF0.87131
aF0.0010623
aa(lp121
F0.87428
aF0.0010426
aF0.87515
aF0.001037
aF0.87533
aF0.0010358
aa(lp122
F0.87689
aF0.0010262
aF0.88113
aF0.0010014
aF0.88427
aF0.0009858
aa(lp123
F0.88806
aF0.00096758
aF0.88953
aF0.00096064
aF0.88975
aF0.00095959
aa(lp124
F0.8916
aF0.00095101
aF0.89646
aF0.00092906
aF0.89929
aF0.00091666
aa(lp125
F0.90215
aF0.00090441
aF0.90537
aF0.00089085
aF0.91134
aF0.0008665
aa(lp126
F0.91408
aF0.00085565
aF0.91558
aF0.00084979
aF0.91622
aF0.00084733
aa(lp127
F0.91645
aF0.00084644
aF0.91762
aF0.0008419
aF0.92205
aF0.00082524
aa(lp128
F0.929
aF0.00080013
aF0.93684
aF0.00077292
aF0.94377
aF0.00074982
aa(lp129
F0.94821
aF0.00073545
aF0.95036
aF0.00072859
aF0.95432
aF0.00071626
aa(lp130
F0.95948
aF0.00070056
aF0.96342
aF0.00068883
aF0.96455
aF0.00068549
aa(lp131
F0.96478
aF0.00068481
aF0.96508
aF0.00068394
aF0.96566
aF0.00068225
aa(lp132
F0.96596
aF0.00068138
aF0.96619
aF0.0006807
aF0.96725
aF0.00067764
aa(lp133
F0.97113
aF0.00066648
aF0.97716
aF0.00064956
aF0.98349
aF0.0006311
aa(lp134
F0.98941
aF0.00061532
aF0.99321
aF0.00060545
aF0.99529
aF0.00060012
aa(lp135
F0.99955
aF0.00058935
aF1.0054
aF0.00057567
aF1.0096
aF0.00056546
aa(lp136
F1.0117
aF0.00056046
aF1.0144
aF0.00055419
aF1.0155
aF0.00055173
aa(lp137
F1.0157
aF0.00055121
aF1.0168
aF0.00054869
aF1.0208
aF0.00053947
aa(lp138
F1.0271
aF0.00052549
aF1.0341
aF0.00051026
aF1.0402
aF0.00049724
aa(lp139
F1.0441
aF0.00048911
aF1.0462
aF0.00048479
aF1.0504
aF0.00047622
aa(lp140
F1.0559
aF0.00046532
aF1.0601
aF0.00045718
aF1.0623
aF0.00045292
aa(lp141
F1.0665
aF0.00044506
aF1.0719
aF0.00043507
aF1.0759
aF0.0004276
aa(lp142
F1.0777
aF0.00042436
aF1.0797
aF0.00042088
aF1.0819
aF0.00041665
aa(lp143
F1.0865
aF0.00040866
aF1.09
aF0.0004025
aF1.0952
aF0.00039369
aa(lp144
F1.0972
aF0.0003904
aF1.0974
aF0.00039007
aF1.0983
aF0.00038851
aa(lp145
F1.1007
aF0.00038459
aF1.1025
aF0.00038155
aF1.1062
aF0.00037553
aa(lp146
F1.1111
aF0.00036786
aF1.1147
aF0.00036212
aF1.1163
aF0.00035968
aa(lp147
F1.1179
aF0.00035717
aF1.1186
aF0.00035609
aF1.1189
aF0.00035565
aa(lp148
F1.1193
aF0.00035512
aF1.12
aF0.0003541
aF1.1203
aF0.00035362
aa(lp149
F1.1205
aF0.00035333
aF1.1215
aF0.00035168
aF1.1243
aF0.00034753
aa(lp150
F1.1256
aF0.00034556
aF1.1265
aF0.00034429
aF1.1269
aF0.00034373
aa(lp151
F1.127
aF0.00034345
aF1.1286
aF0.0003411
aF1.1328
aF0.00033507
aa(lp152
F1.1343
aF0.0003328
aF1.1345
aF0.00033253
aF1.1351
aF0.00033174
aa(lp153
F1.1364
aF0.00032988
aF1.137
aF0.0003291
aF1.1371
aF0.00032884
aa(lp154
F1.1391
aF0.00032614
aF1.1441
aF0.00031917
aF1.146
aF0.00031658
aa(lp155
F1.1462
aF0.00031632
aF1.1498
aF0.0003114
aF1.1594
aF0.00029869
aa(lp156
F1.1662
aF0.0002898
aF1.1755
aF0.00027822
aF1.1788
aF0.00027405
aa(lp157
F1.179
aF0.00027384
aF1.18
aF0.00027269
aF1.1832
aF0.00026871
aa(lp158
F1.1875
aF0.00026362
aF1.1907
aF0.00025981
aF1.1928
aF0.0002574
aa(lp159
F1.1972
aF0.00025222
aF1.2029
aF0.00024566
aF1.2073
aF0.00024079
aa(lp160
F1.2095
aF0.00023827
aF1.2126
aF0.00023491
aF1.2143
aF0.00023306
aa(lp161
F1.2166
aF0.00023054
aF1.2202
aF0.00022669
aF1.2238
aF0.00022244
aa(lp162
F1.2273
aF0.00021876
aF1.2295
aF0.00021644
aF1.2301
aF0.00021581
aa(lp163
F1.2303
aF0.00021566
aF1.2316
aF0.0002143
aF1.235
aF0.00021078
aa(lp164
F1.2361
aF0.00020946
aF1.2358
aF0.00020932
aF1.2365
aF0.00020846
aa(lp165
F1.2387
aF0.00020629
aF1.2395
aF0.00020545
aF1.2396
aF0.00020531
aa(lp166
F1.2407
aF0.0002042
aF1.2446
aF0.00020032
aF1.2482
aF0.00019539
aa(lp167
F1.2519
aF0.00019172
aF1.2529
aF0.00019072
aF1.2529
aF0.00019059
aa(lp168
F1.2536
aF0.00018984
aF1.2563
aF0.00018725
aF1.2597
aF0.00018394
aa(lp169
F1.2623
aF0.00018145
aF1.263
aF0.00018075
aF1.2631
aF0.00018063
aa(lp170
F1.2639
aF0.00017987
aF1.2668
aF0.00017719
aF1.2704
aF0.00017377
aa(lp171
F1.2731
aF0.00017122
aF1.2745
aF0.00016987
aF1.2772
aF0.00016739
aa(lp172
F1.2806
aF0.00016422
aF1.2832
aF0.00016185
aF1.2845
aF0.00016061
aa(lp173
F1.287
aF0.0001583
aF1.2902
aF0.00015537
aF1.2927
aF0.00015316
aa(lp174
F1.2939
aF0.00015201
aF1.2963
aF0.00014987
aF1.2994
aF0.00014714
aa(lp175
F1.3016
aF0.00014509
aF1.3027
aF0.00014417
aF1.3042
aF0.00014275
aa(lp176
F1.3063
aF0.00014093
aF1.3078
aF0.00013955
aF1.3082
aF0.00013916
aa(lp177
F1.3083
aF0.00013907
aF1.3091
aF0.00013834
aF1.3112
aF0.00013647
aa(lp178
F1.3119
aF0.00013559
aF1.3123
aF0.00013506
aF1.3126
aF0.00013452
aa(lp179
F1.3132
aF0.00013359
aF1.314
aF0.00013229
aF1.3162
aF0.00012971
aa(lp180
F1.3177
aF0.00012841
aF1.3188
aF0.00012738
aF1.3192
aF0.00012698
aa(lp181
F1.3193
aF0.00012691
aF1.3198
aF0.00012643
aF1.3216
aF0.00012476
aa(lp182
F1.3232
aF0.00012263
aF1.3249
aF0.00012103
aF1.3254
aF0.00012058
aa(lp183
F1.3254
aF0.00012051
aF1.3259
aF0.00012007
aF1.3275
aF0.00011852
aa(lp184
F1.3295
aF0.00011653
aF1.331
aF0.00011504
aF1.3318
aF0.00011425
aa(lp185
F1.3332
aF0.0001128
aF1.335
aF0.00011094
aF1.3364
aF0.00010955
aa(lp186
F1.3371
aF0.00010881
aF1.3383
aF0.00010746
aF1.3399
aF0.00010572
aa(lp187
F1.3411
aF0.00010441
aF1.342
aF0.00010338
aF1.3436
aF0.00010154
aa(lp188
F1.3444
aF0.00010051
aF1.3453
aF9.951e-05
aF1.3456
aF9.908e-05
aa(lp189
F1.3458
aF9.8894e-05
aF1.3458
aF9.8806e-05
aF1.3459
aF9.8753e-05
aa(lp190
F1.3464
aF9.8115e-05
aF1.3476
aF9.6453e-05
aF1.3481
aF9.5845e-05
aa(lp191
F1.3481
aF9.5819e-05
aF1.3484
aF9.5457e-05
aF1.349
aF9.4503e-05
aa(lp192
F1.3493
aF9.4138e-05
aF1.3493
aF9.4089e-05
aF1.3496
aF9.3736e-05
aa(lp193
F1.3502
aF9.283e-05
aF1.3509
aF9.1796e-05
aF1.352
aF8.9908e-05
aa(lp194
F1.3526
aF8.877e-05
aF1.3531
aF8.7526e-05
aF1.3534
aF8.6988e-05
aa(lp195
F1.3535
aF8.6744e-05
aF1.3536
aF8.6639e-05
aF1.3536
aF8.6595e-05
aa(lp196
F1.3538
aF8.6248e-05
aF1.3542
aF8.5352e-05
aF1.3543
aF8.5026e-05
aa(lp197
F1.3543
aF8.5024e-05
aF1.3543
aF8.5022e-05
aF1.3546
aF8.4444e-05
aa(lp198
F1.3552
aF8.2897e-05
aF1.3554
aF8.2326e-05
aF1.3554
aF8.2285e-05
aa(lp199
F1.3554
aF8.2255e-05
aF1.3554
aF8.2214e-05
aF1.3554
aF8.2184e-05
aa(lp200
F1.3554
aF8.2143e-05
aF1.3554
aF8.2113e-05
aF1.3554
aF8.2072e-05
aa(lp201
F1.3555
aF8.1945e-05
aF1.3556
aF8.1641e-05
aF1.3556
aF8.1514e-05
aa(lp202
F1.3556
aF8.1474e-05
aF1.3557
aF8.1208e-05
aF1.3559
aF8.0528e-05
aa(lp203
F1.356
aF8.0108e-05
aF1.3561
aF7.9636e-05
aF1.3561
aF7.9457e-05
aa(lp204
F1.3561
aF7.9438e-05
aF1.3562
aF7.8955e-05
aF1.3564
aF7.7675e-05
aa(lp205
F1.3564
aF7.6681e-05
aF1.3564
aF7.4727e-05
aF1.3558
aF7.2284e-05
aa(lp206
F1.3552
aF7.049e-05
aF1.3546
aF6.9419e-05
aF1.3532
aF6.722e-05
aa(lp207
F1.3508
aF6.4503e-05
aF1.3485
aF6.2529e-05
aF1.3474
aF6.1701e-05
aa(lp208
F1.3456
aF6.0532e-05
aF1.343
aF5.9057e-05
aF1.3409
aF5.7962e-05
aa(lp209
F1.3403
aF5.7667e-05
aF1.3402
aF5.7643e-05
aF1.3398
aF5.7421e-05
aa(lp210
F1.3379
aF5.6579e-05
aF1.3347
aF5.5303e-05
aF1.3308
aF5.3915e-05
aa(lp211
F1.3272
aF5.273e-05
aF1.3247
aF5.1991e-05
aF1.323
aF5.1495e-05
aa(lp212
F1.3183
aF5.0262e-05
aF1.3106
aF4.8431e-05
aF1.3009
aF4.6488e-05
aa(lp213
F1.2917
aF4.4868e-05
aF1.2854
aF4.3876e-05
aF1.2838
aF4.3629e-05
aa(lp214
F1.2836
aF4.3613e-05
aF1.2814
aF4.3282e-05
aF1.2751
aF4.2412e-05
aa(lp215
F1.271
aF4.1865e-05
aF1.2639
aF4.1002e-05
aF1.2543
aF3.9919e-05
aa(lp216
F1.2466
aF3.912e-05
aF1.2428
aF3.8738e-05
aF1.236
aF3.8094e-05
aa(lp217
F1.227
aF3.7282e-05
aF1.2198
aF3.6679e-05
aF1.2147
aF3.6264e-05
aa(lp218
F1.2058
aF3.5578e-05
aF1.1951
aF3.4809e-05
aF1.1743
aF3.3445e-05
aa(lp219
F1.162
aF3.2706e-05
aF1.1494
aF3.2004e-05
aF1.1446
aF3.175e-05
aa(lp220
F1.1445
aF3.1741e-05
aF1.1394
aF3.1475e-05
aF1.1253
aF3.0777e-05
aa(lp221
F1.1165
aF3.0367e-05
aF1.1023
aF2.9733e-05
aF1.0796
aF2.8794e-05
aa(lp222
F1.0532
aF2.78e-05
aF1.029
aF2.6974e-05
aF1.0131
aF2.647e-05
aa(lp223
F1.0046
aF2.6208e-05
aF0.98729
aF2.5702e-05
aF0.96434
aF2.5071e-05
aa(lp224
F0.9464
aF2.4609e-05
aF0.94148
aF2.4487e-05
aF0.94125
aF2.4481e-05
aa(lp225
F0.93494
aF2.4327e-05
aF0.90969
aF2.3736e-05
aF0.86959
aF2.2874e-05
aa(lp226
F0.82294
aF2.198e-05
aF0.78088
aF2.1253e-05
aF0.7536
aF2.0815e-05
aa(lp227
F0.74663
aF2.0708e-05
aF0.74638
aF2.0704e-05
aF0.74432
aF2.0673e-05
aa(lp228
F0.73642
aF2.0554e-05
aF0.72411
aF2.0372e-05
aF0.71022
aF2.0171e-05
aa(lp229
F0.69793
aF1.9997e-05
aF0.69004
aF1.9888e-05
aF0.6819
aF1.9776e-05
aa(lp230
F0.66506
aF1.955e-05
aF0.65539
aF1.9423e-05
aF0.64213
aF1.9253e-05
aa(lp231
F0.62471
aF1.9037e-05
aF0.61143
aF1.8876e-05
aF0.60183
aF1.8761e-05
aa(lp232
F0.57917
aF1.8496e-05
aF0.54989
aF1.8165e-05
aF0.52743
aF1.7923e-05
aa(lp233
F0.51257
aF1.7766e-05
aF0.48863
aF1.7519e-05
aF0.47989
aF1.743e-05
aa(lp234
F0.47962
aF1.7428e-05
aF0.47811
aF1.7412e-05
aF0.47426
aF1.7373e-05
aa(lp235
F0.47277
aF1.7358e-05
aF0.47254
aF1.7356e-05
aF0.4719
aF1.735e-05
aa(lp236
F0.47039
aF1.7334e-05
aF0.46974
aF1.7328e-05
aF0.46964
aF1.7327e-05
aa(lp237
F0.46961
aF1.7327e-05
aF0.46742
aF1.7305e-05
aF0.45931
aF1.7223e-05
aa(lp238
F0.44883
aF1.7119e-05
aF0.44085
aF1.704e-05
aF0.4345
aF1.6979e-05
aa(lp239
F0.42297
aF1.6869e-05
aF0.4137
aF1.6781e-05
aF0.39998
aF1.6651e-05
aa(lp240
F0.3926
aF1.6582e-05
aF0.38357
aF1.6496e-05
aF0.37197
aF1.6388e-05
aa(lp241
F0.36323
aF1.6306e-05
aF0.35633
aF1.6241e-05
aF0.33817
aF1.6072e-05
aa(lp242
F0.31111
aF1.5821e-05
aF0.28277
aF1.5552e-05
aF0.26016
aF1.5326e-05
aa(lp243
F0.24701
aF1.5188e-05
aF0.24391
aF1.5153e-05
aF0.24378
aF1.5152e-05
aa(lp244
F0.24087
aF1.5119e-05
aF0.23081
aF1.5e-05
aF0.21973
aF1.4849e-05
aa(lp245
F0.21328
aF1.4737e-05
aF0.20547
aF1.4679e-05
aF0.20777
aF1.4572e-05
aa(lp246
F0.21078
aF1.4437e-05
aF0.2131
aF1.4336e-05
aF0.21436
aF1.4284e-05
aa(lp247
F0.21676
aF1.4185e-05
aF0.21992
aF1.4061e-05
aF0.22235
aF1.3968e-05
aa(lp248
F0.22301
aF1.3944e-05
aF0.22304
aF1.3943e-05
aF0.22384
aF1.3913e-05
aa(lp249
F0.22681
aF1.3807e-05
aF0.23071
aF1.3674e-05
aF0.23372
aF1.3576e-05
aa(lp250
F0.2349
aF1.3539e-05
aF0.23638
aF1.3493e-05
aF0.2387
aF1.3423e-05
aa(lp251
F0.24133
aF1.3346e-05
aF0.24367
aF1.3279e-05
aF0.24518
aF1.3237e-05
aa(lp252
F0.24622
aF1.3209e-05
aF0.24872
aF1.3142e-05
aF0.25201
aF1.3057e-05
aa(lp253
F0.25455
aF1.2994e-05
aF0.25649
aF1.2947e-05
aF0.25997
aF1.2865e-05
aa(lp254
F0.26127
aF1.2836e-05
aF0.2613
aF1.2835e-05
aF0.26239
aF1.281e-05
aa(lp255
F0.26533
aF1.2746e-05
aF0.26695
aF1.2711e-05
aF0.26908
aF1.2667e-05
aa(lp256
F0.27241
aF1.2599e-05
aF0.2762
aF1.2525e-05
aF0.27957
aF1.2462e-05
aa(lp257
F0.28175
aF1.2423e-05
aF0.28303
aF1.24e-05
aF0.28598
aF1.2349e-05
aa(lp258
F0.2906
aF1.2272e-05
aF0.29587
aF1.2188e-05
aF0.30055
aF1.2118e-05
aa(lp259
F0.30358
aF1.2074e-05
aF0.30435
aF1.2063e-05
aF0.30438
aF1.2063e-05
aa(lp260
F0.30501
aF1.2054e-05
aF0.30747
aF1.202e-05
aF0.31134
aF1.1968e-05
aa(lp261
F0.31572
aF1.1911e-05
aF0.31964
aF1.1863e-05
aF0.32216
aF1.1832e-05
aa(lp262
F0.32342
aF1.1818e-05
aF0.32594
aF1.1788e-05
aF0.32988
aF1.1744e-05
aa(lp263
F0.33435
aF1.1696e-05
aF0.33834
aF1.1655e-05
aF0.34091
aF1.1629e-05
aa(lp264
F0.34157
aF1.1622e-05
aF0.3416
aF1.1622e-05
aF0.34243
aF1.1614e-05
aa(lp265
F0.34473
aF1.1591e-05
aF0.34987
aF1.1543e-05
aF0.35504
aF1.1497e-05
aa(lp266
F0.35811
aF1.147e-05
aF0.36238
aF1.1434e-05
aF0.36526
aF1.1411e-05
aa(lp267
F0.3681
aF1.1388e-05
aF0.37002
aF1.1373e-05
aF0.37188
aF1.1359e-05
aa(lp268
F0.37441
aF1.134e-05
aF0.37665
aF1.1323e-05
aF0.37992
aF1.13e-05
aa(lp269
F0.38355
aF1.1274e-05
aF0.3902
aF1.1229e-05
aF0.39266
aF1.1213e-05
aa(lp270
F0.39268
aF1.1213e-05
aF0.39268
aF1.1213e-05
aF0.39287
aF1.1212e-05
aa(lp271
F0.39337
aF1.1208e-05
aF0.39357
aF1.1207e-05
aF0.39361
aF1.1207e-05
aa(lp272
F0.39505
aF1.1198e-05
aF0.39896
aF1.1173e-05
aF0.40043
aF1.1164e-05
aa(lp273
F0.40046
aF1.1164e-05
aF0.40192
aF1.1155e-05
aF0.40736
aF1.1123e-05
aa(lp274
F0.41451
aF1.1082e-05
aF0.42004
aF1.1053e-05
aF0.42305
aF1.1037e-05
aa(lp275
F0.42884
aF1.1008e-05
aF0.43646
aF1.0972e-05
aF0.44235
aF1.0945e-05
aa(lp276
F0.44777
aF1.0921e-05
aF0.46339
aF1.0857e-05
aF0.48824
aF1.0768e-05
aa(lp277
F0.51714
aF1.0682e-05
aF0.5435
aF1.0614e-05
aF0.56079
aF1.0576e-05
aa(lp278
F0.56967
aF1.0557e-05
aF0.58803
aF1.0521e-05
aF0.61722
aF1.0471e-05
aa(lp279
F0.65106
aF1.0422e-05
aF0.68179
aF1.0383e-05
aF0.70196
aF1.036e-05
aa(lp280
F0.71617
aF1.0346e-05
aF0.74141
aF1.0321e-05
aF0.75604
aF1.0309e-05
aa(lp281
F0.77063
aF1.0296e-05
aF0.77856
aF1.029e-05
aF0.78554
aF1.0285e-05
aa(lp282
F0.79157
aF1.028e-05
aF0.80108
aF1.0273e-05
aF0.80457
aF1.0271e-05
aa(lp283
F0.80768
aF1.0268e-05
aF0.81621
aF1.0263e-05
aF0.82425
aF1.0257e-05
aa(lp284
F0.8428
aF1.0245e-05
aF0.86731
aF1.0231e-05
aF0.88633
aF1.0221e-05
aa(lp285
F0.8938
aF1.0217e-05
aF0.90272
aF1.0212e-05
aF0.91442
aF1.0206e-05
aa(lp286
F0.92344
aF1.0202e-05
aF0.93804
aF1.0195e-05
aF0.9876
aF1.0175e-05
aa(lp287
F1.0673
aF1.0148e-05
aF1.1612
aF1.0123e-05
aF1.2478
aF1.0105e-05
aa(lp288
F1.3049
aF1.0095e-05
aF1.3243
aF1.0092e-05
aF1.3433
aF1.0089e-05
aa(lp289
F1.3682
aF1.0085e-05
aF1.3875
aF1.0083e-05
aF1.3933
aF1.0082e-05
aa(lp290
F1.3956
aF1.0082e-05
aF1.3986
aF1.0081e-05
aF1.4009
aF1.0081e-05
aa(lp291
F1.4051
aF1.008e-05
aF1.4149
aF1.0079e-05
aF1.4292
aF1.0077e-05
aa(lp292
F1.4586
aF1.0074e-05
aF1.4695
aF1.0073e-05
aF1.4695
aF1.0073e-05
aa(lp293
F1.4696
aF1.0073e-05
aF1.4696
aF1.0073e-05
aF1.4766
aF1.0072e-05
aa(lp294
F1.4957
aF1.007e-05
aF1.5057
aF1.0069e-05
aF1.514
aF1.0068e-05
aa(lp295
F1.5221
aF1.0067e-05
aF1.5411
aF1.0065e-05
aF1.5661
aF1.0063e-05
aa(lp296
F1.5853
aF1.0061e-05
aF1.6006
aF1.0059e-05
aF1.6283
aF1.0057e-05
aa(lp297
F1.6484
aF1.0055e-05
aF1.6883
aF1.0052e-05
aF1.7515
aF1.0048e-05
aa(lp298
F1.8242
aF1.0043e-05
aF1.8897
aF1.004e-05
aF1.9323
aF1.0037e-05
aa(lp299
F1.9534
aF1.0036e-05
aF1.9951
aF1.0034e-05
aF2.0611
aF1.0032e-05
aa(lp300
F2.137
aF1.0029e-05
aF2.2053
aF1.0026e-05
aF2.2497
aF1.0025e-05
aa(lp301
F2.2795
aF1.0024e-05
aF2.3307
aF1.0022e-05
aF2.3509
aF1.0022e-05
aa(lp302
F2.3545
aF1.0022e-05
aF2.3567
aF1.0022e-05
aF2.3593
aF1.0022e-05
aa(lp303
F2.3648
aF1.0021e-05
aF2.3772
aF1.0021e-05
aF2.3933
aF1.0021e-05
aa(lp304
F2.4243
aF1.002e-05
aF2.4371
aF1.002e-05
aF2.4403
aF1.002e-05
aa(lp305
F2.4426
aF1.0019e-05
aF2.4458
aF1.0019e-05
aF2.4525
aF1.0019e-05
aa(lp306
F2.4678
aF1.0019e-05
aF2.4776
aF1.0019e-05
aF2.4891
aF1.0018e-05
aa(lp307
F2.4933
aF1.0018e-05
aF2.4934
aF1.0018e-05
aF2.4934
aF1.0018e-05
aa(lp308
F2.4934
aF1.0018e-05
aF2.5018
aF1.0018e-05
aF2.5361
aF1.0017e-05
aa(lp309
F2.5921
aF1.0016e-05
aF2.6607
aF1.0015e-05
aF2.73
aF1.0014e-05
aa(lp310
F2.788
aF1.0013e-05
aF2.8242
aF1.0012e-05
aF2.862
aF1.0011e-05
aa(lp311
F2.9796
aF1.001e-05
aF3.1677
aF1.0007e-05
aF3.3871
aF1.0005e-05
aa(lp312
F3.5876
aF1.0004e-05
aF3.7193
aF1.0003e-05
aF3.7582
aF1.0002e-05
aa(lp313
F3.7777
aF1.0002e-05
aF3.7973
aF1.0002e-05
aF3.8359
aF1.0002e-05
aa(lp314
F3.8944
aF1.0002e-05
aF3.9644
aF1.0001e-05
aF3.9902
aF1.0001e-05
aa(lp315
F3.9904
aF1.0001e-05
aF4.0018
aF1.0001e-05
aF4.0328
aF1.0001e-05
aa(lp316
F4.0503
aF1.0001e-05
aF4.0671
aF1.0001e-05
aF4.0876
aF1e-05
aa(lp317
F4.1468
aF1e-05
aF4.246
aF9.9997e-06
aF4.3727
aF9.9992e-06
aa(lp318
F4.5108
aF9.9986e-06
aF4.6415
aF9.9981e-06
aF4.7464
aF9.9978e-06
aa(lp319
F4.8103
aF9.9976e-06
aF4.8358
aF9.9975e-06
aF4.863
aF9.9974e-06
aa(lp320
F4.9887
aF9.9971e-06
aF5.312
aF9.9962e-06
aF5.4775
aF9.9959e-06
aa(lp321
F5.6325
aF9.9955e-06
aF5.7897
aF9.9953e-06
aF5.8359
aF9.9952e-06
aa(lp322
F5.836
aF9.9952e-06
aF5.8746
aF9.9951e-06
aF5.9807
aF9.9949e-06
aa(lp323
F6.0198
aF9.9949e-06
aF6.0199
aF9.9949e-06
aF6.5867
aF9.9941e-06
aa(lp324
F8.266
aF9.9926e-06
aF9.6493
aF9.9919e-06
aF11.759
aF9.9913e-06
aa(lp325
F13.5
aF9.991e-06
aF16.168
aF9.9908e-06
aF18.368
aF9.9906e-06
aa(lp326
F21.744
aF9.9905e-06
aF24.364
aF9.9904e-06
aF28.141
aF9.9903e-06
aa(lp327
F29.902
aF9.9903e-06
aF30.748
aF9.9903e-06
aF32.397
aF9.9903e-06
aa(lp328
F37.927
aF9.9902e-06
aF46.888
aF9.9902e-06
aF56.928
aF9.9902e-06
aa(lp329
F64.438
aF9.9902e-06
aF68.648
aF9.9901e-06
aF77.72
aF9.9901e-06
aa(lp330
F92.329
aF9.9901e-06
aF108.69
aF9.9901e-06
aF121.0
aF9.9901e-06
aa(lp331
F127.68
aF9.9901e-06
aF141.61
aF9.9901e-06
aF164.29
aF9.9901e-06
aa(lp332
F190.16
aF9.9901e-06
aF210.02
aF9.9901e-06
aF220.93
aF9.9901e-06
aa(lp333
F244.04
aF9.9901e-06
aF282.63
aF9.9901e-06
aF328.04
aF9.9901e-06
aa(lp334
F363.75
aF9.9901e-06
aF383.67
aF9.9901e-06
aF426.41
aF9.9901e-06
aa(lp335
F499.17
aF9.9901e-06
aF586.21
aF9.9901e-06
aF655.28
aF9.9901e-06
aa(lp336
F693.9
aF9.9901e-06
aF776.82
aF9.9901e-06
aF917.34
aF9.9901e-06
aa(lp337
F1083.4
aF9.9901e-06
aF1213.1
aF9.9901e-06
aF1284.7
aF9.9901e-06
aa(lp338
F1436.2
aF9.9901e-06
aF1685.9
aF9.9901e-06
aF1969.7
aF9.9901e-06
aa(lp339
F2183.3
aF9.9901e-06
aF2298.4
aF9.9901e-06
aF2535.4
aF9.9901e-06
aa(lp340
F2908.2
aF9.9901e-06
aF3307.5
aF9.9901e-06
aF3592.2
aF9.9901e-06
aa(lp341
F3740.2
aF9.9901e-06
aF4034.2
aF9.9901e-06
aF4467.8
aF9.9901e-06
aa(lp342
F4895.5
aF9.9901e-06
aF5178.2
aF9.9901e-06
aF5318.0
aF9.9901e-06
aa(lp343
F5581.1
aF9.9901e-06
aF5933.6
aF9.9901e-06
aF6237.7
aF9.9901e-06
aa(lp344
F6412.8
aF9.9901e-06
aF6491.0
aF9.9901e-06
aF6621.4
aF9.9901e-06
aa(lp345
F6755.2
aF9.9901e-06
aF6819.4
aF9.9901e-06
aF6823.7
aF9.9901e-06
aa(lp346
F6813.8
aF9.9901e-06
aF6771.7
aF9.9901e-06
aF6659.2
aF9.9901e-06
aa(lp347
F6493.4
aF9.9901e-06
aF6354.1
aF9.9901e-06
aF6276.0
aF9.9901e-06
aa(lp348
F6111.4
aF9.9901e-06
aF5848.6
aF9.9901e-06
aF5568.8
aF9.9901e-06
aa(lp349
F5372.9
aF9.9901e-06
aF5272.5
aF9.9901e-06
aF5076.5
aF9.9901e-06
aa(lp350
F4795.5
aF9.9901e-06
aF4526.9
aF9.9901e-06
aF4353.2
aF9.9901e-06
aa(lp351
F4268.1
aF9.9901e-06
aF4108.8
aF9.9901e-06
aF3894.5
aF9.9901e-06
aa(lp352
F3704.3
aF9.9901e-06
aF3588.4
aF9.9901e-06
aF3533.6
aF9.9901e-06
aa(lp353
F3434.9
aF9.9901e-06
aF3310.4
aF9.9901e-06
aF3208.7
aF9.9901e-06
aa(lp354
F3151.8
aF9.9901e-06
aF3126.5
aF9.9901e-06
aF3083.9
aF9.9901e-06
aa(lp355
F3037.3
aF9.9901e-06
aF3008.3
aF9.9901e-06
aF2997.7
aF9.9901e-06
aa(lp356
F2995.0
aF9.9901e-06
aF2994.7
aF9.9901e-06
aF3005.4
aF9.9901e-06
aa(lp357
F3028.1
aF9.9901e-06
aF3049.9
aF9.9901e-06
aF3056.2
aF9.9901e-06
aa.