(lp0
(lp1
F725.21
aF0.031764
aF736.05
aF0.031375
aF754.56
aF0.030783
aa(lp2
F780.11
aF0.030116
aF810.92
aF0.029488
aF841.14
aF0.028973
aa(lp3
F854.42
aF0.026965
aF860.55
aF0.025247
aF863.27
aF0.024415
aa(lp4
F866.62
aF0.023271
aF867.85
aF0.022817
aF868.29
aF0.022673
aa(lp5
F868.99
aF0.022416
aF870.98
aF0.021668
aF873.18
aF0.020738
aa(lp6
F874.85
aF0.020059
aF875.41
aF0.019838
aF875.72
aF0.019718
aa(lp7
F876.15
aF0.019554
aF876.97
aF0.01923
aF765.56
aF0.019092
aa(lp8
F460.28
aF0.019035
aF347.83
aF0.018407
aF370.37
aF0.016868
aa(lp9
F379.3
aF0.016311
aF380.84
aF0.016217
aF384.83
aF0.015971
aa(lp10
F398.37
aF0.015176
aF424.39
aF0.014099
aF451.44
aF0.013118
aa(lp11
F470.06
aF0.012497
aF476.36
aF0.012296
aF480.56
aF0.012164
aa(lp12
F482.48
aF0.012105
aF483.53
aF0.012072
aF484.68
aF0.012037
aa(lp13
F486.78
aF0.011973
aF492.17
aF0.01181
aF504.83
aF0.011441
aa(lp14
F515.31
aF0.011147
aF531.2
aF0.01072
aF543.4
aF0.010405
aa(lp15
F560.84
aF0.0099754
aF565.6
aF0.0098146
aF561.28
aF0.0097898
aa(lp16
F564.16
aF0.0096773
aF576.32
aF0.0094018
aF581.54
aF0.0092865
aa(lp17
F583.66
aF0.0092403
aF586.36
aF0.0091816
aF591.64
aF0.0090684
aa(lp18
F594.35
aF0.0090111
aF596.45
aF0.0089667
aF611.47
aF0.0086576
aa(lp19
F634.3
aF0.0079173
aF640.49
aF0.0076534
aF641.36
aF0.0076174
aa(lp20
F642.15
aF0.0075845
aF643.46
aF0.0075311
aF648.88
aF0.0073146
aa(lp21
F662.27
aF0.0068089
aF667.52
aF0.006624
aF668.4
aF0.006594
aa(lp22
F670.97
aF0.0065072
aF677.42
aF0.0063054
aF680.67
aF0.0062082
aa(lp23
F683.01
aF0.0061395
aF690.56
aF0.005939
aF709.07
aF0.0054911
aa(lp24
F716.29
aF0.0053296
aF717.33
aF0.0053069
aF719.04
aF0.0052698
aa(lp25
F722.69
aF0.005192
aF727.29
aF0.19849
aF735.54
aF0.19022
aa(lp26
F740.33
aF0.18479
aF748.04
aF0.17645
aF757.97
aF0.16857
aa(lp27
F761.05
aF0.16621
aF761.54
aF0.16581
aF762.11
aF0.16538
aa(lp28
F763.17
aF0.16458
aF768.82
aF0.16045
aF783.71
aF0.15049
aa(lp29
F789.71
aF0.14679
aF790.85
aF0.1461
aF794.8
aF0.14375
aa(lp30
F804.46
aF0.13819
aF808.42
aF0.136
aF809.56
aF0.13538
aa(lp31
F812.68
aF0.13368
aF820.09
aF0.12978
aF824.07
aF0.12775
aa(lp32
F827.52
aF0.12603
aF829.21
aF0.1252
aF830.37
aF0.12463
aa(lp33
F831.42
aF0.12412
aF833.15
aF0.12329
aF834.21
aF0.12278
aa(lp34
F835.37
aF0.12223
aF836.29
aF0.1218
aF837.0
aF0.12146
aa(lp35
F837.58
aF0.12119
aF112.73
aF0.11884
aF114.96
aF0.11295
aa(lp36
F115.8
aF0.11071
aF115.97
aF0.11023
aF116.29
aF0.10926
aa(lp37
F116.93
aF0.10714
aF115.4
aF0.10621
aF114.07
aF0.10576
aa(lp38
F110.12
aF0.10443
aF100.1
aF0.10134
aF80.379
aF0.095909
aa(lp39
F82.917
aF0.091288
aF79.933
aF0.089339
aF80.062
aF0.086874
aa(lp40
F80.206
aF0.085043
aF76.494
aF0.0845
aF71.236
aF0.084327
aa(lp41
F65.56
aF0.083375
aF64.984
aF0.080216
aF64.142
aF0.076543
aa(lp42
F63.122
aF0.0727
aF62.619
aF0.070769
aF62.206
aF0.069201
aa(lp43
F62.044
aF0.068589
aF55.395
aF0.068456
aF26.756
aF0.066618
aa(lp44
F26.365
aF0.06202
aF26.26
aF0.060272
aF12.578
aF0.059822
aa(lp45
F12.396
aF0.058648
aF12.022
aF0.055995
aF11.931
aF0.054988
aa(lp46
F12.986
aF0.054787
aF12.906
aF0.054095
aF12.729
aF0.05245
aa(lp47
F12.658
aF0.051727
aF12.624
aF0.051355
aF12.573
aF0.047829
aa(lp48
F12.788
aF0.039906
aF12.978
aF0.037335
aF12.34
aF0.037089
aa(lp49
F12.374
aF0.036888
aF12.425
aF0.036585
aF12.581
aF0.035695
aa(lp50
F22.276
aF0.03367
aF21.34
aF0.032927
aF20.742
aF0.032822
aa(lp51
F20.305
aF0.032745
aF19.708
aF0.03264
aF19.271
aF0.032564
aa(lp52
F18.673
aF0.032461
aF15.063
aF0.031843
aF12.986
aF0.030325
aa(lp53
F13.096
aF0.029758
aF13.113
aF0.029666
aF13.142
aF0.029514
aa(lp54
F13.2
aF0.029196
aF13.227
aF0.029047
aF13.243
aF0.028957
aa(lp55
F13.277
aF0.028761
aF13.351
aF0.028322
aF13.382
aF0.028132
aa(lp56
F13.395
aF0.028045
aF13.409
aF0.027959
aF13.432
aF0.02781
aa(lp57
F13.442
aF0.02774
aF13.309
aF0.027697
aF13.113
aF0.02752
aa(lp58
F13.17
aF0.027084
aF13.196
aF0.026468
aF13.178
aF0.025266
aa(lp59
F13.188
aF0.024816
aF13.161
aF0.024743
aF13.217
aF0.024148
aa(lp60
F13.444
aF0.022679
aF11.738
aF0.022158
aF6.7941
aF0.022126
aa(lp61
F4.9523
aF0.021622
aF4.8784
aF0.020344
aF4.8539
aF0.019214
aa(lp62
F4.8315
aF0.017486
aF4.8283
aF0.016887
aF4.8282
aF0.016842
aa(lp63
F3.18
aF0.016652
aF3.2179
aF0.016404
aF3.2589
aF0.016144
aa(lp64
F3.3005
aF0.01589
aF3.328
aF0.015718
aF3.3718
aF0.015454
aa(lp65
F3.3907
aF0.015344
aF3.3977
aF0.015304
aF3.4497
aF0.015013
aa(lp66
F3.6451
aF0.014031
aF3.7958
aF0.01287
aF3.9093
aF0.012062
aa(lp67
F3.9443
aF0.011837
aF3.2281
aF0.01178
aF3.2094
aF0.011567
aa(lp68
F3.1534
aF0.010936
aF3.1007
aF0.010349
aF3.0851
aF0.010177
aa(lp69
F3.083
aF0.010154
aF3.0647
aF0.0099535
aF3.2323
aF0.0094534
aa(lp70
F3.3098
aF0.0092707
aF3.3188
aF0.0092498
aF3.3899
aF0.009087
aa(lp71
F3.5757
aF0.0086799
aF3.4151
aF0.0085286
aF2.9579
aF0.0085123
aa(lp72
F1.3604
aF0.0083849
aF1.5531
aF0.0080698
aF1.6279
aF0.007952
aa(lp73
F1.6389
aF0.0079348
aF1.6525
aF0.0077092
aF1.4996
aF0.0071485
aa(lp74
F1.4449
aF0.0069458
aF0.96946
aF0.0069168
aF0.97332
aF0.0068628
aa(lp75
F0.97683
aF0.0068145
aF0.97786
aF0.0068004
aF0.98833
aF0.0066576
aa(lp76
F1.0163
aF0.0062995
aF1.0272
aF0.00617
aF1.0283
aF0.0061576
aa(lp77
F1.0402
aF0.0060518
aF1.0697
aF0.0057859
aF1.0792
aF0.0056841
aa(lp78
F0.92006
aF0.0056617
aF0.92378
aF0.0055746
aF0.93321
aF0.0053662
aa(lp79
F0.9369
aF0.0052887
aF0.93739
aF0.0052785
aF0.93873
aF0.0052509
aa(lp80
F0.94273
aF0.00517
aF0.94676
aF0.0050908
aF0.94732
aF0.0050239
aa(lp81
F0.94248
aF0.0048629
aF0.9363
aF0.0046626
aF0.93143
aF0.0045161
aa(lp82
F0.92912
aF0.0044061
aF0.92704
aF0.0042169
aF0.9263
aF0.0041475
aa(lp83
F0.92622
aF0.00414
aF0.92596
aF0.0041155
aF0.90318
aF0.0040566
aa(lp84
F0.90303
aF0.0040326
aF0.90299
aF0.0040254
aF0.90217
aF0.0038795
aa(lp85
F0.88129
aF0.00352
aF0.87331
aF0.0033949
aF0.87256
aF0.0033833
aa(lp86
F0.86963
aF0.0033377
aF0.85993
aF0.0031882
aF0.84807
aF0.0030057
aa(lp87
F0.85024
aF0.0028748
aF0.85108
aF0.0028404
aF0.85114
aF0.002838
aa(lp88
F0.85163
aF0.0028189
aF0.85349
aF0.0027518
aF0.85615
aF0.0026671
aa(lp89
F0.85836
aF0.0026045
aF0.8595
aF0.0025746
aF0.8613
aF0.0025286
aa(lp90
F0.86307
aF0.0024836
aF0.86366
aF0.0024693
aF0.86382
aF0.0024654
aa(lp91
F0.86429
aF0.0024542
aF0.86543
aF0.0024275
aF0.86591
aF0.0024164
aa(lp92
F0.86607
aF0.0024127
aF0.86706
aF0.0023907
aF0.8706
aF0.0023152
aa(lp93
F0.87537
aF0.0022212
aF0.87907
aF0.0021524
aF0.88016
aF0.0021328
aa(lp94
F0.88043
aF0.002128
aF0.88212
aF0.0020978
aF0.88638
aF0.0020227
aa(lp95
F0.88795
aF0.0019949
aF0.88812
aF0.001992
aF0.8887
aF0.0019818
aa(lp96
F0.87571
aF0.0019572
aF0.87633
aF0.0019477
aF0.87642
aF0.0019463
aa(lp97
F0.87836
aF0.0019163
aF0.88315
aF0.0018386
aF0.88478
aF0.0018103
aa(lp98
F0.88493
aF0.0018077
aF0.88569
aF0.0017938
aF0.88762
aF0.0017465
aa(lp99
F0.88893
aF0.0016871
aF0.88957
aF0.0016433
aF0.8892
aF0.001631
aa(lp100
F0.88883
aF0.0016287
aF0.88608
aF0.0016122
aF0.87871
aF0.0015704
aa(lp101
F0.87317
aF0.0015553
aF0.87191
aF0.0015552
aF0.87175
aF0.0015543
aa(lp102
F0.86919
aF0.0015402
aF0.87102
aF0.0015047
aF0.87499
aF0.0014913
aa(lp103
F0.87559
aF0.0014893
aF0.88027
aF0.0014734
aF0.8922
aF0.0014331
aa(lp104
F0.89668
aF0.001418
aF0.89724
aF0.0014161
aF0.90023
aF0.0014061
aa(lp105
F0.90554
aF0.001381
aF0.90622
aF0.0013716
aF0.90629
aF0.0013707
aa(lp106
F0.86756
aF0.0013683
aF0.85309
aF0.0013629
aF0.85333
aF0.0013596
aa(lp107
F0.8536
aF0.001356
aF0.85375
aF0.001354
aF0.85388
aF0.0013522
aa(lp108
F0.8548
aF0.0013394
aF0.85775
aF0.0012953
aF0.86094
aF0.0012404
aa(lp109
F0.86295
aF0.0012003
aF0.86283
aF0.0011843
aF0.86273
aF0.0011693
aa(lp110
F0.86035
aF0.0011609
aF0.86007
aF0.0011492
aF0.85973
aF0.0011324
aa(lp111
F0.85947
aF0.0011159
aF0.85934
aF0.0011048
aF0.85924
aF0.0010938
aa(lp112
F0.85915
aF0.0010635
aF0.85826
aF0.0010256
aF0.85785
aF0.00099768
aa(lp113
F0.85787
aF0.00098449
aF0.85811
aF0.00096854
aF0.85841
aF0.00095454
aa(lp114
F0.85901
aF0.00093249
aF0.85958
aF0.00091617
aF0.86054
aF0.00089366
aa(lp115
F0.86098
aF0.00088483
aF0.85442
aF0.00088275
aF0.85536
aF0.00087407
aa(lp116
F0.85786
aF0.00085287
aF0.85933
aF0.00084126
aF0.86116
aF0.00082765
aa(lp117
F0.86304
aF0.00081432
aF0.86424
aF0.00080625
aF0.86603
aF0.0007948
aa(lp118
F0.86676
aF0.00079033
aF0.8669
aF0.00078943
aF0.86733
aF0.00078647
aa(lp119
F0.86832
aF0.00077935
aF0.86876
aF0.00077627
aF0.86896
aF0.00077495
aa(lp120
F0.86961
aF0.00077058
aF0.8719
aF0.00075618
aF0.87511
aF0.00073792
aa(lp121
F0.8777
aF0.0007243
aF0.87847
aF0.00072043
aF0.87863
aF0.00071963
aa(lp122
F0.88004
aF0.00071294
aF0.88392
aF0.00069584
aF0.88684
aF0.00068502
aa(lp123
F0.89039
aF0.00067242
aF0.89178
aF0.00066762
aF0.89199
aF0.00066689
aa(lp124
F0.89374
aF0.00066096
aF0.89836
aF0.00064578
aF0.90107
aF0.0006372
aa(lp125
F0.90381
aF0.00062873
aF0.90692
aF0.00061935
aF0.91271
aF0.00060251
aa(lp126
F0.91537
aF0.00059501
aF0.91684
aF0.00059095
aF0.91745
aF0.00058925
aa(lp127
F0.91768
aF0.00058864
aF0.91883
aF0.0005855
aF0.92315
aF0.00057398
aa(lp128
F0.92996
aF0.00055661
aF0.93767
aF0.0005378
aF0.94451
aF0.00052182
aa(lp129
F0.94889
aF0.00051188
aF0.95102
aF0.00050714
aF0.95494
aF0.00049861
aa(lp130
F0.96006
aF0.00048775
aF0.96398
aF0.00047964
aF0.9651
aF0.00047733
aa(lp131
F0.96533
aF0.00047686
aF0.96563
aF0.00047626
aF0.96621
aF0.00047509
aa(lp132
F0.9665
aF0.00047449
aF0.96673
aF0.00047402
aF0.96778
aF0.0004719
aa(lp133
F0.97164
aF0.00046419
aF0.97764
aF0.00045248
aF0.98369
aF0.00043972
aa(lp134
F0.98959
aF0.00042881
aF0.99339
aF0.00042199
aF0.99547
aF0.0004183
aa(lp135
F0.99973
aF0.00041085
aF1.0055
aF0.00040139
aF1.0097
aF0.00039433
aa(lp136
F1.0119
aF0.00039088
aF1.0145
aF0.00038654
aF1.0156
aF0.00038484
aa(lp137
F1.0158
aF0.00038448
aF1.0169
aF0.00038274
aF1.0209
aF0.00037636
aa(lp138
F1.0272
aF0.0003667
aF1.0341
aF0.00035617
aF1.0402
aF0.00034717
aa(lp139
F1.0441
aF0.00034154
aF1.0462
aF0.00033856
aF1.0504
aF0.00033263
aa(lp140
F1.0559
aF0.00032509
aF1.0601
aF0.00031947
aF1.0623
aF0.00031652
aa(lp141
F1.0664
aF0.00031109
aF1.0718
aF0.00030418
aF1.0759
aF0.00029902
aa(lp142
F1.0776
aF0.00029678
aF1.0796
aF0.00029437
aF1.0817
aF0.00029144
aa(lp143
F1.0862
aF0.00028592
aF1.0897
aF0.00028166
aF1.0949
aF0.00027557
aa(lp144
F1.0968
aF0.0002733
aF1.097
aF0.00027307
aF1.098
aF0.00027199
aa(lp145
F1.1003
aF0.00026929
aF1.1022
aF0.00026718
aF1.1059
aF0.00026302
aa(lp146
F1.1107
aF0.00025772
aF1.1143
aF0.00025375
aF1.1159
aF0.00025206
aa(lp147
F1.1175
aF0.00025033
aF1.1182
aF0.00024958
aF1.1185
aF0.00024928
aa(lp148
F1.1189
aF0.00024891
aF1.1195
aF0.0002482
aF1.1198
aF0.00024787
aa(lp149
F1.12
aF0.00024767
aF1.1211
aF0.00024653
aF1.1238
aF0.00024366
aa(lp150
F1.1252
aF0.0002423
aF1.126
aF0.00024143
aF1.1264
aF0.00024104
aa(lp151
F1.1266
aF0.00024084
aF1.1282
aF0.00023922
aF1.1323
aF0.00023505
aa(lp152
F1.1339
aF0.00023348
aF1.134
aF0.00023329
aF1.1346
aF0.00023275
aa(lp153
F1.1359
aF0.00023146
aF1.1365
aF0.00023092
aF1.1366
aF0.00023074
aa(lp154
F1.1386
aF0.00022888
aF1.1436
aF0.00022406
aF1.1454
aF0.00022226
aa(lp155
F1.1456
aF0.00022209
aF1.1492
aF0.00021869
aF1.1588
aF0.0002099
aa(lp156
F1.1656
aF0.00020376
aF1.1748
aF0.00019575
aF1.1782
aF0.00019287
aa(lp157
F1.1783
aF0.00019273
aF1.1793
aF0.00019193
aF1.1825
aF0.00018918
aa(lp158
F1.1868
aF0.00018566
aF1.19
aF0.00018302
aF1.192
aF0.00018136
aa(lp159
F1.1964
aF0.00017778
aF1.2021
aF0.00017325
aF1.2064
aF0.00016988
aa(lp160
F1.2087
aF0.00016813
aF1.2117
aF0.00016581
aF1.2134
aF0.00016454
aa(lp161
F1.2157
aF0.0001628
aF1.2193
aF0.00016013
aF1.2226
aF0.00015719
aa(lp162
F1.2261
aF0.00015465
aF1.2283
aF0.00015305
aF1.2289
aF0.00015261
aa(lp163
F1.2291
aF0.00015251
aF1.2304
aF0.00015157
aF1.2338
aF0.00014914
aa(lp164
F1.2348
aF0.00014823
aF1.2346
aF0.00014812
aF1.2354
aF0.00014753
aa(lp165
F1.2375
aF0.00014603
aF1.2383
aF0.00014545
aF1.2384
aF0.00014535
aa(lp166
F1.2395
aF0.00014459
aF1.2433
aF0.0001419
aF1.2466
aF0.0001385
aa(lp167
F1.2503
aF0.00013596
aF1.2513
aF0.00013527
aF1.2513
aF0.00013518
aa(lp168
F1.252
aF0.00013466
aF1.2546
aF0.00013287
aF1.258
aF0.00013058
aa(lp169
F1.2606
aF0.00012887
aF1.2613
aF0.00012838
aF1.2615
aF0.0001283
aa(lp170
F1.2623
aF0.00012777
aF1.2651
aF0.00012592
aF1.2687
aF0.00012356
aa(lp171
F1.2714
aF0.00012179
aF1.2728
aF0.00012086
aF1.2754
aF0.00011915
aa(lp172
F1.2788
aF0.00011696
aF1.2814
aF0.00011532
aF1.2827
aF0.00011446
aa(lp173
F1.2852
aF0.00011287
aF1.2884
aF0.00011084
aF1.2908
aF0.00010931
aa(lp174
F1.2921
aF0.00010851
aF1.2944
aF0.00010704
aF1.2974
aF0.00010515
aa(lp175
F1.2997
aF0.00010373
aF1.3007
aF0.0001031
aF1.3023
aF0.00010212
aa(lp176
F1.3043
aF0.00010086
aF1.3058
aF9.9907e-05
aF1.3062
aF9.9634e-05
aa(lp177
F1.3063
aF9.9575e-05
aF1.3071
aF9.9072e-05
aF1.3092
aF9.7774e-05
aa(lp178
F1.3098
aF9.7169e-05
aF1.3101
aF9.6802e-05
aF1.3104
aF9.6432e-05
aa(lp179
F1.3109
aF9.579e-05
aF1.3115
aF9.4891e-05
aF1.3135
aF9.3106e-05
aa(lp180
F1.3149
aF9.2203e-05
aF1.316
aF9.1496e-05
aF1.3164
aF9.1221e-05
aa(lp181
F1.3165
aF9.1169e-05
aF1.317
aF9.0839e-05
aF1.3188
aF8.9687e-05
aa(lp182
F1.3205
aF8.8214e-05
aF1.3222
aF8.7108e-05
aF1.3226
aF8.6799e-05
aa(lp183
F1.3227
aF8.6751e-05
aF1.3231
aF8.6443e-05
aF1.3247
aF8.5369e-05
aa(lp184
F1.3267
aF8.3996e-05
aF1.3282
aF8.2965e-05
aF1.329
aF8.2422e-05
aa(lp185
F1.3304
aF8.1419e-05
aF1.3322
aF8.0136e-05
aF1.3336
aF7.9172e-05
aa(lp186
F1.3343
aF7.8665e-05
aF1.3355
aF7.7726e-05
aF1.3371
aF7.6526e-05
aa(lp187
F1.3383
aF7.5624e-05
aF1.3392
aF7.4912e-05
aF1.3408
aF7.3639e-05
aa(lp188
F1.3416
aF7.2925e-05
aF1.3424
aF7.2235e-05
aF1.3428
aF7.1938e-05
aa(lp189
F1.3429
aF7.1809e-05
aF1.343
aF7.1748e-05
aF1.343
aF7.1712e-05
aa(lp190
F1.3435
aF7.1271e-05
aF1.3448
aF7.0122e-05
aF1.3453
aF6.9702e-05
aa(lp191
F1.3453
aF6.9684e-05
aF1.3455
aF6.9434e-05
aF1.3462
aF6.8775e-05
aa(lp192
F1.3465
aF6.8523e-05
aF1.3465
aF6.8489e-05
aF1.3468
aF6.8245e-05
aa(lp193
F1.3474
aF6.7619e-05
aF1.348
aF6.6904e-05
aF1.3492
aF6.56e-05
aa(lp194
F1.3498
aF6.4813e-05
aF1.3503
aF6.3954e-05
aF1.3506
aF6.3581e-05
aa(lp195
F1.3507
aF6.3413e-05
aF1.3507
aF6.334e-05
aF1.3508
aF6.331e-05
aa(lp196
F1.3509
aF6.307e-05
aF1.3514
aF6.2451e-05
aF1.3515
aF6.2226e-05
aa(lp197
F1.3515
aF6.2224e-05
aF1.3514
aF6.2223e-05
aF1.3517
aF6.1824e-05
aa(lp198
F1.3523
aF6.0755e-05
aF1.3525
aF6.036e-05
aF1.3525
aF6.0332e-05
aa(lp199
F1.3525
aF6.0311e-05
aF1.3525
aF6.0283e-05
aF1.3525
aF6.0262e-05
aa(lp200
F1.3526
aF6.0234e-05
aF1.3526
aF6.0213e-05
aF1.3526
aF6.0185e-05
aa(lp201
F1.3526
aF6.0097e-05
aF1.3527
aF5.9887e-05
aF1.3528
aF5.9799e-05
aa(lp202
F1.3528
aF5.9771e-05
aF1.3528
aF5.9588e-05
aF1.353
aF5.9118e-05
aa(lp203
F1.3531
aF5.8827e-05
aF1.3532
aF5.8501e-05
aF1.3533
aF5.8378e-05
aa(lp204
F1.3533
aF5.8364e-05
aF1.3534
aF5.803e-05
aF1.3535
aF5.7146e-05
aa(lp205
F1.3536
aF5.6459e-05
aF1.3536
aF5.5109e-05
aF1.3531
aF5.3421e-05
aa(lp206
F1.3525
aF5.2181e-05
aF1.352
aF5.1441e-05
aF1.3507
aF4.9922e-05
aa(lp207
F1.3483
aF4.8044e-05
aF1.3461
aF4.668e-05
aF1.345
aF4.6108e-05
aa(lp208
F1.3433
aF4.5301e-05
aF1.3408
aF4.4281e-05
aF1.3388
aF4.3525e-05
aa(lp209
F1.3382
aF4.3321e-05
aF1.3381
aF4.3304e-05
aF1.3376
aF4.3151e-05
aa(lp210
F1.3358
aF4.2569e-05
aF1.3327
aF4.1688e-05
aF1.329
aF4.0729e-05
aa(lp211
F1.3255
aF3.991e-05
aF1.3231
aF3.9399e-05
aF1.3214
aF3.9056e-05
aa(lp212
F1.3169
aF3.8204e-05
aF1.3094
aF3.6939e-05
aF1.3001
aF3.5596e-05
aa(lp213
F1.2911
aF3.4477e-05
aF1.285
aF3.3792e-05
aF1.2834
aF3.3621e-05
aa(lp214
F1.2833
aF3.361e-05
aF1.2811
aF3.3381e-05
aF1.275
aF3.278e-05
aa(lp215
F1.271
aF3.2403e-05
aF1.2642
aF3.1806e-05
aF1.2549
aF3.1058e-05
aa(lp216
F1.2475
aF3.0506e-05
aF1.2437
aF3.0242e-05
aF1.2372
aF2.9797e-05
aa(lp217
F1.2284
aF2.9236e-05
aF1.2215
aF2.8819e-05
aF1.2165
aF2.8533e-05
aa(lp218
F1.2079
aF2.8059e-05
aF1.1976
aF2.7527e-05
aF1.1775
aF2.6585e-05
aa(lp219
F1.1656
aF2.6074e-05
aF1.1534
aF2.5589e-05
aF1.1489
aF2.5414e-05
aa(lp220
F1.1487
aF2.5408e-05
aF1.1438
aF2.5224e-05
aF1.1302
aF2.4742e-05
aa(lp221
F1.1217
aF2.4458e-05
aF1.108
aF2.4021e-05
aF1.0861
aF2.3372e-05
aa(lp222
F1.0607
aF2.2685e-05
aF1.0374
aF2.2114e-05
aF1.0221
aF2.1766e-05
aa(lp223
F1.0138
aF2.1585e-05
aF0.99721
aF2.1236e-05
aF0.97515
aF2.08e-05
aa(lp224
F0.95791
aF2.048e-05
aF0.95318
aF2.0396e-05
aF0.95296
aF2.0392e-05
aa(lp225
F0.9469
aF2.0285e-05
aF0.92266
aF1.9877e-05
aF0.88421
aF1.9281e-05
aa(lp226
F0.83952
aF1.8664e-05
aF0.79926
aF1.8162e-05
aF0.77318
aF1.7859e-05
aa(lp227
F0.76651
aF1.7785e-05
aF0.76627
aF1.7783e-05
aF0.76431
aF1.7761e-05
aa(lp228
F0.75675
aF1.7679e-05
aF0.74499
aF1.7553e-05
aF0.73172
aF1.7414e-05
aa(lp229
F0.71998
aF1.7294e-05
aF0.71245
aF1.7218e-05
aF0.70469
aF1.7141e-05
aa(lp230
F0.68863
aF1.6985e-05
aF0.67941
aF1.6897e-05
aF0.66678
aF1.678e-05
aa(lp231
F0.65017
aF1.6631e-05
aF0.63753
aF1.6519e-05
aF0.62839
aF1.644e-05
aa(lp232
F0.60684
aF1.6257e-05
aF0.57902
aF1.6028e-05
aF0.5577
aF1.5861e-05
aa(lp233
F0.5436
aF1.5753e-05
aF0.52092
aF1.5582e-05
aF0.51264
aF1.552e-05
aa(lp234
F0.51238
aF1.5519e-05
aF0.51096
aF1.5508e-05
aF0.50731
aF1.5481e-05
aa(lp235
F0.5059
aF1.5471e-05
aF0.50568
aF1.5469e-05
aF0.50507
aF1.5465e-05
aa(lp236
F0.50364
aF1.5454e-05
aF0.50303
aF1.545e-05
aF0.50294
aF1.5449e-05
aa(lp237
F0.50289
aF1.5449e-05
aF0.50081
aF1.5434e-05
aF0.49315
aF1.5378e-05
aa(lp238
F0.48326
aF1.5306e-05
aF0.47573
aF1.5251e-05
aF0.46974
aF1.5209e-05
aa(lp239
F0.45887
aF1.5133e-05
aF0.45013
aF1.5072e-05
aF0.43722
aF1.4982e-05
aa(lp240
F0.43027
aF1.4934e-05
aF0.42178
aF1.4876e-05
aF0.4109
aF1.48e-05
aa(lp241
F0.40269
aF1.4744e-05
aF0.39623
aF1.4699e-05
aF0.37921
aF1.4583e-05
aa(lp242
F0.35393
aF1.4409e-05
aF0.32757
aF1.4223e-05
aF0.30667
aF1.4067e-05
aa(lp243
F0.2946
aF1.3971e-05
aF0.29177
aF1.3948e-05
aF0.29164
aF1.3947e-05
aa(lp244
F0.28899
aF1.3924e-05
aF0.27986
aF1.3841e-05
aF0.26995
aF1.3737e-05
aa(lp245
F0.26433
aF1.366e-05
aF0.25712
aF1.362e-05
aF0.26
aF1.3546e-05
aa(lp246
F0.26378
aF1.3453e-05
aF0.2667
aF1.3383e-05
aF0.26829
aF1.3347e-05
aa(lp247
F0.27131
aF1.3279e-05
aF0.27529
aF1.3193e-05
aF0.27836
aF1.3129e-05
aa(lp248
F0.27919
aF1.3112e-05
aF0.27923
aF1.3111e-05
aF0.28023
aF1.3091e-05
aa(lp249
F0.28398
aF1.3018e-05
aF0.2889
aF1.2926e-05
aF0.2927
aF1.2858e-05
aa(lp250
F0.29418
aF1.2833e-05
aF0.29605
aF1.2801e-05
aF0.29898
aF1.2752e-05
aa(lp251
F0.3023
aF1.2699e-05
aF0.30526
aF1.2653e-05
aF0.30717
aF1.2624e-05
aa(lp252
F0.30848
aF1.2604e-05
aF0.31165
aF1.2558e-05
aF0.31581
aF1.2499e-05
aa(lp253
F0.31902
aF1.2456e-05
aF0.32152
aF1.2423e-05
aF0.32602
aF1.2367e-05
aa(lp254
F0.32768
aF1.2346e-05
aF0.32772
aF1.2346e-05
aF0.32912
aF1.2329e-05
aa(lp255
F0.33293
aF1.2284e-05
aF0.335
aF1.2261e-05
aF0.33774
aF1.223e-05
aa(lp256
F0.34203
aF1.2183e-05
aF0.3469
aF1.2132e-05
aF0.35123
aF1.2089e-05
aa(lp257
F0.35403
aF1.2061e-05
aF0.35566
aF1.2046e-05
aF0.35944
aF1.201e-05
aa(lp258
F0.36536
aF1.1957e-05
aF0.3721
aF1.1899e-05
aF0.37809
aF1.1851e-05
aa(lp259
F0.38195
aF1.182e-05
aF0.38293
aF1.1813e-05
aF0.38297
aF1.1813e-05
aa(lp260
F0.38377
aF1.1806e-05
aF0.38691
aF1.1783e-05
aF0.39183
aF1.1747e-05
aa(lp261
F0.39742
aF1.1708e-05
aF0.4024
aF1.1674e-05
aF0.40561
aF1.1653e-05
aa(lp262
F0.4072
aF1.1643e-05
aF0.4104
aF1.1623e-05
aF0.4154
aF1.1593e-05
aa(lp263
F0.42107
aF1.1559e-05
aF0.42613
aF1.1531e-05
aF0.42939
aF1.1513e-05
aa(lp264
F0.43021
aF1.1508e-05
aF0.43026
aF1.1508e-05
aF0.4313
aF1.1502e-05
aa(lp265
F0.43422
aF1.1487e-05
aF0.44071
aF1.1454e-05
aF0.44725
aF1.1421e-05
aa(lp266
F0.45113
aF1.1403e-05
aF0.45652
aF1.1378e-05
aF0.46016
aF1.1362e-05
aa(lp267
F0.46374
aF1.1346e-05
aF0.46615
aF1.1336e-05
aF0.4685
aF1.1326e-05
aa(lp268
F0.47168
aF1.1313e-05
aF0.4745
aF1.1302e-05
aF0.47862
aF1.1285e-05
aa(lp269
F0.48319
aF1.1268e-05
aF0.49156
aF1.1237e-05
aF0.49464
aF1.1226e-05
aa(lp270
F0.49466
aF1.1226e-05
aF0.49465
aF1.1226e-05
aF0.49488
aF1.1225e-05
aa(lp271
F0.4955
aF1.1222e-05
aF0.49574
aF1.1222e-05
aF0.49579
aF1.1221e-05
aa(lp272
F0.49756
aF1.1215e-05
aF0.50237
aF1.1198e-05
aF0.50416
aF1.1192e-05
aa(lp273
F0.50421
aF1.1191e-05
aF0.506
aF1.1185e-05
aF0.51268
aF1.1163e-05
aa(lp274
F0.52147
aF1.1135e-05
aF0.52827
aF1.1115e-05
aF0.53197
aF1.1104e-05
aa(lp275
F0.53909
aF1.1084e-05
aF0.54847
aF1.1059e-05
aF0.55571
aF1.104e-05
aa(lp276
F0.56238
aF1.1024e-05
aF0.58162
aF1.098e-05
aF0.61228
aF1.0919e-05
aa(lp277
F0.64798
aF1.0858e-05
aF0.68057
aF1.0812e-05
aF0.70196
aF1.0785e-05
aa(lp278
F0.71295
aF1.0773e-05
aF0.73569
aF1.0748e-05
aF0.77188
aF1.0713e-05
aa(lp279
F0.81387
aF1.0679e-05
aF0.85205
aF1.0652e-05
aF0.87728
aF1.0637e-05
aa(lp280
F0.8951
aF1.0626e-05
aF0.92674
aF1.061e-05
aF0.9451
aF1.0601e-05
aa(lp281
F0.9634
aF1.0592e-05
aF0.97334
aF1.0588e-05
aF0.9821
aF1.0584e-05
aa(lp282
F0.98966
aF1.0581e-05
aF1.0016
aF1.0576e-05
aF1.006
aF1.0575e-05
aa(lp283
F1.0098
aF1.0573e-05
aF1.0206
aF1.0569e-05
aF1.0306
aF1.0565e-05
aa(lp284
F1.0539
aF1.0557e-05
aF1.0846
aF1.0547e-05
aF1.1085
aF1.054e-05
aa(lp285
F1.1179
aF1.0537e-05
aF1.129
aF1.0534e-05
aF1.1437
aF1.053e-05
aa(lp286
F1.155
aF1.0527e-05
aF1.1733
aF1.0523e-05
aF1.2356
aF1.0509e-05
aa(lp287
F1.3356
aF1.049e-05
aF1.4534
aF1.0473e-05
aF1.562
aF1.046e-05
aa(lp288
F1.6336
aF1.0453e-05
aF1.658
aF1.0451e-05
aF1.6818
aF1.0449e-05
aa(lp289
F1.7131
aF1.0447e-05
aF1.7373
aF1.0445e-05
aF1.7446
aF1.0444e-05
aa(lp290
F1.7475
aF1.0444e-05
aF1.7512
aF1.0444e-05
aF1.7541
aF1.0444e-05
aa(lp291
F1.7594
aF1.0443e-05
aF1.7717
aF1.0442e-05
aF1.7896
aF1.0441e-05
aa(lp292
F1.8265
aF1.0439e-05
aF1.8402
aF1.0438e-05
aF1.8402
aF1.0438e-05
aa(lp293
F1.8402
aF1.0438e-05
aF1.8403
aF1.0438e-05
aF1.849
aF1.0437e-05
aa(lp294
F1.873
aF1.0436e-05
aF1.8856
aF1.0435e-05
aF1.896
aF1.0434e-05
aa(lp295
F1.9061
aF1.0434e-05
aF1.9299
aF1.0433e-05
aF1.9611
aF1.0431e-05
aa(lp296
F1.9851
aF1.043e-05
aF2.0042
aF1.0429e-05
aF2.0388
aF1.0427e-05
aa(lp297
F2.0639
aF1.0426e-05
aF2.1138
aF1.0424e-05
aF2.1927
aF1.0421e-05
aa(lp298
F2.2836
aF1.0418e-05
aF2.3656
aF1.0415e-05
aF2.419
aF1.0414e-05
aa(lp299
F2.4453
aF1.0413e-05
aF2.4976
aF1.0411e-05
aF2.5802
aF1.0409e-05
aa(lp300
F2.6752
aF1.0407e-05
aF2.7608
aF1.0406e-05
aF2.8165
aF1.0405e-05
aa(lp301
F2.8537
aF1.0404e-05
aF2.9179
aF1.0403e-05
aF2.9432
aF1.0403e-05
aa(lp302
F2.9477
aF1.0403e-05
aF2.9505
aF1.0403e-05
aF2.9537
aF1.0403e-05
aa(lp303
F2.9606
aF1.0403e-05
aF2.9762
aF1.0402e-05
aF2.9963
aF1.0402e-05
aa(lp304
F3.035
aF1.0401e-05
aF3.051
aF1.0401e-05
aF3.055
aF1.0401e-05
aa(lp305
F3.0579
aF1.0401e-05
aF3.0618
aF1.0401e-05
aF3.0703
aF1.0401e-05
aa(lp306
F3.0895
aF1.0401e-05
aF3.1018
aF1.0401e-05
aF3.1162
aF1.04e-05
aa(lp307
F3.1214
aF1.04e-05
aF3.1215
aF1.04e-05
aF3.1216
aF1.04e-05
aa(lp308
F3.1216
aF1.04e-05
aF3.1321
aF1.04e-05
aF3.1751
aF1.04e-05
aa(lp309
F3.2453
aF1.0399e-05
aF3.3312
aF1.0398e-05
aF3.4182
aF1.0397e-05
aa(lp310
F3.4909
aF1.0396e-05
aF3.5362
aF1.0396e-05
aF3.5836
aF1.0396e-05
aa(lp311
F3.7311
aF1.0394e-05
aF3.967
aF1.0393e-05
aF4.2422
aF1.0391e-05
aa(lp312
F4.4938
aF1.039e-05
aF4.6591
aF1.039e-05
aF4.7079
aF1.0389e-05
aa(lp313
F4.7324
aF1.0389e-05
aF4.7569
aF1.0389e-05
aF4.8053
aF1.0389e-05
aa(lp314
F4.8788
aF1.0389e-05
aF4.9666
aF1.0388e-05
aF4.9991
aF1.0388e-05
aa(lp315
F4.9993
aF1.0388e-05
aF5.0136
aF1.0388e-05
aF5.0526
aF1.0388e-05
aa(lp316
F5.0745
aF1.0388e-05
aF5.0956
aF1.0388e-05
aF5.1213
aF1.0388e-05
aa(lp317
F5.1957
aF1.0388e-05
aF5.3201
aF1.0387e-05
aF5.4793
aF1.0387e-05
aa(lp318
F5.6526
aF1.0387e-05
aF5.8167
aF1.0386e-05
aF5.9485
aF1.0386e-05
aa(lp319
F6.0287
aF1.0386e-05
aF6.0608
aF1.0386e-05
aF6.0949
aF1.0386e-05
aa(lp320
F6.2529
aF1.0386e-05
aF6.6589
aF1.0385e-05
aF6.8668
aF1.0385e-05
aa(lp321
F7.0615
aF1.0385e-05
aF7.2591
aF1.0384e-05
aF7.3171
aF1.0384e-05
aa(lp322
F7.3173
aF1.0384e-05
aF7.3659
aF1.0384e-05
aF7.4991
aF1.0384e-05
aa(lp323
F7.5483
aF1.0384e-05
aF7.5484
aF1.0384e-05
aF8.2618
aF1.0384e-05
aa(lp324
F10.376
aF1.0383e-05
aF12.117
aF1.0382e-05
aF14.773
aF1.0382e-05
aa(lp325
F16.964
aF1.0381e-05
aF20.321
aF1.0381e-05
aF23.089
aF1.0381e-05
aa(lp326
F27.337
aF1.0381e-05
aF30.634
aF1.0381e-05
aF35.384
aF1.0381e-05
aa(lp327
F37.599
aF1.0381e-05
aF38.664
aF1.0381e-05
aF40.738
aF1.0381e-05
aa(lp328
F47.693
aF1.0381e-05
aF58.963
aF1.0381e-05
aF71.585
aF1.0381e-05
aa(lp329
F81.027
aF1.0381e-05
aF86.318
aF1.0381e-05
aF97.717
aF1.0381e-05
aa(lp330
F116.07
aF1.0381e-05
aF136.61
aF1.0381e-05
aF152.05
aF1.0381e-05
aa(lp331
F160.42
aF1.0381e-05
aF177.88
aF1.0381e-05
aF206.27
aF1.0381e-05
aa(lp332
F238.62
aF1.0381e-05
aF263.41
aF1.0381e-05
aF277.02
aF1.0381e-05
aa(lp333
F305.82
aF1.0381e-05
aF353.83
aF1.0381e-05
aF410.21
aF1.0381e-05
aa(lp334
F454.48
aF1.0381e-05
aF479.15
aF1.0381e-05
aF532.03
aF1.0381e-05
aa(lp335
F621.89
aF1.0381e-05
aF729.23
aF1.0381e-05
aF814.3
aF1.0381e-05
aa(lp336
F861.84
aF1.0381e-05
aF963.83
aF1.0381e-05
aF1136.5
aF1.0381e-05
aa(lp337
F1340.5
aF1.0381e-05
aF1499.6
aF1.0381e-05
aF1587.5
aF1.0381e-05
aa(lp338
F1773.3
aF1.0381e-05
aF2079.5
aF1.0381e-05
aF2427.4
aF1.0381e-05
aa(lp339
F2689.2
aF1.0381e-05
aF2830.3
aF1.0381e-05
aF3120.8
aF1.0381e-05
aa(lp340
F3577.8
aF1.0381e-05
aF4067.2
aF1.0381e-05
aF4416.1
aF1.0381e-05
aa(lp341
F4597.7
aF1.0381e-05
aF4958.0
aF1.0381e-05
aF5489.6
aF1.0381e-05
aa(lp342
F6014.1
aF1.0381e-05
aF6360.9
aF1.0381e-05
aF6532.5
aF1.0381e-05
aa(lp343
F6855.3
aF1.0381e-05
aF7288.0
aF1.0381e-05
aF7661.5
aF1.0381e-05
aa(lp344
F7876.9
aF1.0381e-05
aF7973.3
aF1.0381e-05
aF8134.1
aF1.0381e-05
aa(lp345
F8300.0
aF1.0381e-05
aF8381.1
aF1.0381e-05
aF8388.2
aF1.0381e-05
aa(lp346
F8377.2
aF1.0381e-05
aF8328.0
aF1.0381e-05
aF8194.4
aF1.0381e-05
aa(lp347
F7995.9
aF1.0381e-05
aF7828.8
aF1.0381e-05
aF7735.0
aF1.0381e-05
aa(lp348
F7537.4
aF1.0381e-05
aF7221.5
aF1.0381e-05
aF6885.2
aF1.0381e-05
aa(lp349
F6649.7
aF1.0381e-05
aF6529.0
aF1.0381e-05
aF6293.5
aF1.0381e-05
aa(lp350
F5955.8
aF1.0381e-05
aF5633.1
aF1.0381e-05
aF5424.5
aF1.0381e-05
aa(lp351
F5322.3
aF1.0381e-05
aF5131.1
aF1.0381e-05
aF4874.0
aF1.0381e-05
aa(lp352
F4645.9
aF1.0381e-05
aF4507.1
aF1.0381e-05
aF4441.6
aF1.0381e-05
aa(lp353
F4323.6
aF1.0381e-05
aF4175.2
aF1.0381e-05
aF4054.6
aF1.0381e-05
aa(lp354
F3987.6
aF1.0381e-05
aF3957.9
aF1.0381e-05
aF3908.4
aF1.0381e-05
aa(lp355
F3855.6
aF1.0381e-05
aF3824.3
aF1.0381e-05
aF3814.4
aF1.0381e-05
aa(lp356
F3812.7
aF1.0381e-05
aF3815.7
aF1.0381e-05
aF3834.1
aF1.0381e-05
aa(lp357
F3867.7
aF1.0381e-05
aF3898.5
aF1.0381e-05
aF3907.3
aF1.0381e-05
aa.